

Microchip MPLAB XC8 Assembler V3.10 build 20250813170317 
                                                                                               Thu Jan 15 14:48:44 2026

Microchip MPLAB XC8 C Compiler v3.10 (Free license) build 20250813170317 Og9 
     1                           	processor	18F4321
     2                           	fnconf	rparam,??,?,0
     3                           	pagewidth 120
     4                           	opt	flic
     5                           	psect	smallconst,global,reloc=2,class=SMALLCONST,space=0,delta=1,noexec
     6                           	psect	nvCOMRAM,global,class=COMRAM,space=1,delta=1,lowdata,noexec
     7                           	psect	cinit,global,reloc=2,class=CODE,space=0,delta=1
     8                           	psect	bssCOMRAM,global,class=COMRAM,space=1,delta=1,lowdata,noexec
     9                           	psect	bssBANK0,global,class=BANK0,space=1,delta=1,lowdata,noexec
    10                           	psect	bssBANK1,global,class=BANK1,space=1,delta=1,lowdata,noexec
    11                           	psect	cstackCOMRAM,global,class=COMRAM,space=1,delta=1,lowdata,noexec
    12                           	psect	text0,global,reloc=2,class=CODE,space=0,delta=1
    13                           	psect	text1,global,reloc=2,class=CODE,space=0,delta=1
    14                           	psect	text2,global,reloc=2,class=CODE,space=0,delta=1
    15                           	psect	text3,global,reloc=2,class=CODE,space=0,delta=1
    16                           	psect	text4,global,reloc=2,class=CODE,space=0,delta=1
    17                           	psect	text5,global,reloc=2,class=CODE,space=0,delta=1
    18                           	psect	text6,global,reloc=2,class=CODE,space=0,delta=1
    19                           	psect	text7,global,reloc=2,class=CODE,space=0,delta=1
    20                           	psect	text8,global,reloc=2,class=CODE,space=0,delta=1
    21                           	psect	text9,global,reloc=2,class=CODE,space=0,delta=1,group=3
    22                           	psect	text10,global,reloc=2,class=CODE,space=0,delta=1,group=1
    23                           	psect	text11,global,reloc=2,class=CODE,space=0,delta=1,group=1
    24                           	psect	text12,global,reloc=2,class=CODE,space=0,delta=1,group=3
    25                           	psect	text13,global,reloc=2,class=CODE,space=0,delta=1,group=3
    26                           	psect	text14,global,reloc=2,class=CODE,space=0,delta=1,group=3
    27                           	psect	text15,global,reloc=2,class=CODE,space=0,delta=1,group=2
    28                           	psect	text16,global,reloc=2,class=CODE,space=0,delta=1,group=2
    29                           	psect	text17,global,reloc=2,class=CODE,space=0,delta=1
    30                           	psect	text18,global,reloc=2,class=CODE,space=0,delta=1
    31                           	psect	text19,global,reloc=2,class=CODE,space=0,delta=1
    32                           	psect	text20,global,reloc=2,class=CODE,space=0,delta=1
    33                           	psect	intcode,global,reloc=2,class=CODE,space=0,delta=1
    34                           	psect	text22,global,reloc=2,class=CODE,space=0,delta=1
    35                           	psect	intsave_regs,global,class=BIGRAM,space=1,delta=1,noexec
    36                           	psect	rparam,global,class=COMRAM,space=1,delta=1,noexec
    37                           	psect	config,global,abs,ovrld,class=CONFIG,space=4,delta=1,noexec
    38                           	dabs	1,0x1,1
    39   000000                     
    40                           ; Generated 17/10/2023 GMT
    41                           ; 
    42                           ; Copyright © 2023, Microchip Technology Inc. and its subsidiaries ("Microchip")
    43                           ; All rights reserved.
    44                           ; 
    45                           ; This software is developed by Microchip Technology Inc. and its subsidiaries ("Microch
      +                          ip").
    46                           ; 
    47                           ; Redistribution and use in source and binary forms, with or without modification, are
    48                           ; permitted provided that the following conditions are met:
    49                           ; 
    50                           ;     1. Redistributions of source code must retain the above copyright notice, this lis
      +                          t of
    51                           ;        conditions and the following disclaimer.
    52                           ; 
    53                           ;     2. Redistributions in binary form must reproduce the above copyright notice, this 
      +                          list
    54                           ;        of conditions and the following disclaimer in the documentation and/or other
    55                           ;        materials provided with the distribution. Publication is not required when
    56                           ;        this file is used in an embedded application.
    57                           ; 
    58                           ;     3. Microchip's name may not be used to endorse or promote products derived from th
      +                          is
    59                           ;        software without specific prior written permission.
    60                           ; 
    61                           ; THIS SOFTWARE IS PROVIDED BY MICROCHIP "AS IS" AND ANY EXPRESS OR IMPLIED WARRANTIES,
    62                           ; INCLUDING, BUT NOT LIMITED TO, THE IMPLIED WARRANTIES OF MERCHANTABILITY AND FITNESS F
      +                          OR
    63                           ; PURPOSE ARE DISCLAIMED.  IN NO EVENT SHALL MICROCHIP BE LIABLE FOR ANY DIRECT, INDIREC
      +                          T,
    64                           ; INCIDENTAL, SPECIAL, EXEMPLARY, OR CONSEQUENTIAL DAMAGES (INCLUDING BUT NOT LIMITED TO
    65                           ; PROCUREMENT OF SUBSTITUTE GOODS OR SERVICES; LOSS OF USE, DATA OR PROFITS; OR BUSINESS
    66                           ; INTERRUPTION) HOWSOEVER CAUSED AND ON ANY THEORY OF LIABILITY, WHETHER IN CONTRACT, ST
      +                          RICT
    67                           ; LIABILITY, OR TORT (INCLUDING NEGLIGENCE OR OTHERWISE) ARISING IN ANY WAY OUT OF THE U
      +                          SE OF
    68                           ; THIS SOFTWARE, EVEN IF ADVISED OF THE POSSIBILITY OF SUCH DAMAGE.
    69                           ; 
    70                           ; 
    71                           ; Code-generator required, PIC18F4321 Definitions
    72                           ; 
    73                           ; SFR Addresses
    74   000FE0                     bsr             equ	4064
    75   000FE9                     fsr0            equ	4073
    76   000FEA                     fsr0h           equ	4074
    77   000FE9                     fsr0l           equ	4073
    78   000FE1                     fsr1            equ	4065
    79   000FE2                     fsr1h           equ	4066
    80   000FE1                     fsr1l           equ	4065
    81   000FD9                     fsr2            equ	4057
    82   000FDA                     fsr2h           equ	4058
    83   000FD9                     fsr2l           equ	4057
    84   000FEF                     indf0           equ	4079
    85   000FE7                     indf1           equ	4071
    86   000FDF                     indf2           equ	4063
    87   000FF2                     intcon          equ	4082
    88   000000                     nvmcon          equ	0
    89   000FF9                     pcl             equ	4089
    90   000FFA                     pclath          equ	4090
    91   000FFB                     pclatu          equ	4091
    92   000FEB                     plusw0          equ	4075
    93   000FE3                     plusw1          equ	4067
    94   000FDB                     plusw2          equ	4059
    95   000FED                     postdec0        equ	4077
    96   000FE5                     postdec1        equ	4069
    97   000FDD                     postdec2        equ	4061
    98   000FEE                     postinc0        equ	4078
    99   000FE6                     postinc1        equ	4070
   100   000FDE                     postinc2        equ	4062
   101   000FEC                     preinc0         equ	4076
   102   000FE4                     preinc1         equ	4068
   103   000FDC                     preinc2         equ	4060
   104   000FF3                     prod            equ	4083
   105   000FF4                     prodh           equ	4084
   106   000FF3                     prodl           equ	4083
   107   000FD8                     status          equ	4056
   108   000FF5                     tablat          equ	4085
   109   000FF6                     tblptr          equ	4086
   110   000FF7                     tblptrh         equ	4087
   111   000FF6                     tblptrl         equ	4086
   112   000FF8                     tblptru         equ	4088
   113   000FFD                     tosl            equ	4093
   114   000FE8                     wreg            equ	4072
   115   000F80                     PORTA           equ	3968	;# 
   116   000F81                     PORTB           equ	3969	;# 
   117   000F82                     PORTC           equ	3970	;# 
   118   000F83                     PORTD           equ	3971	;# 
   119   000F84                     PORTE           equ	3972	;# 
   120   000F89                     LATA            equ	3977	;# 
   121   000F8A                     LATB            equ	3978	;# 
   122   000F8B                     LATC            equ	3979	;# 
   123   000F8C                     LATD            equ	3980	;# 
   124   000F8D                     LATE            equ	3981	;# 
   125   000F92                     TRISA           equ	3986	;# 
   126   000F92                     DDRA            equ	3986	;# 
   127   000F93                     TRISB           equ	3987	;# 
   128   000F93                     DDRB            equ	3987	;# 
   129   000F94                     TRISC           equ	3988	;# 
   130   000F94                     DDRC            equ	3988	;# 
   131   000F95                     TRISD           equ	3989	;# 
   132   000F95                     DDRD            equ	3989	;# 
   133   000F96                     TRISE           equ	3990	;# 
   134   000F96                     DDRE            equ	3990	;# 
   135   000F9B                     OSCTUNE         equ	3995	;# 
   136   000F9D                     PIE1            equ	3997	;# 
   137   000F9E                     PIR1            equ	3998	;# 
   138   000F9F                     IPR1            equ	3999	;# 
   139   000FA0                     PIE2            equ	4000	;# 
   140   000FA1                     PIR2            equ	4001	;# 
   141   000FA2                     IPR2            equ	4002	;# 
   142   000FA6                     EECON1          equ	4006	;# 
   143   000FA7                     EECON2          equ	4007	;# 
   144   000FA8                     EEDATA          equ	4008	;# 
   145   000FA9                     EEADR           equ	4009	;# 
   146   000FAB                     RCSTA           equ	4011	;# 
   147   000FAB                     RCSTA1          equ	4011	;# 
   148   000FAC                     TXSTA           equ	4012	;# 
   149   000FAC                     TXSTA1          equ	4012	;# 
   150   000FAD                     TXREG           equ	4013	;# 
   151   000FAD                     TXREG1          equ	4013	;# 
   152   000FAE                     RCREG           equ	4014	;# 
   153   000FAE                     RCREG1          equ	4014	;# 
   154   000FAF                     SPBRG           equ	4015	;# 
   155   000FAF                     SPBRG1          equ	4015	;# 
   156   000FB0                     SPBRGH          equ	4016	;# 
   157   000FB1                     T3CON           equ	4017	;# 
   158   000FB2                     TMR3            equ	4018	;# 
   159   000FB2                     TMR3L           equ	4018	;# 
   160   000FB3                     TMR3H           equ	4019	;# 
   161   000FB4                     CMCON           equ	4020	;# 
   162   000FB5                     CVRCON          equ	4021	;# 
   163   000FB6                     ECCP1AS         equ	4022	;# 
   164   000FB7                     ECCP1DEL        equ	4023	;# 
   165   000FB7                     PWM1CON         equ	4023	;# 
   166   000FB8                     BAUDCON         equ	4024	;# 
   167   000FB8                     BAUDCTL         equ	4024	;# 
   168   000FBA                     CCP2CON         equ	4026	;# 
   169   000FBB                     CCPR2           equ	4027	;# 
   170   000FBB                     CCPR2L          equ	4027	;# 
   171   000FBC                     CCPR2H          equ	4028	;# 
   172   000FBD                     CCP1CON         equ	4029	;# 
   173   000FBD                     ECCP1CON        equ	4029	;# 
   174   000FBE                     CCPR1           equ	4030	;# 
   175   000FBE                     CCPR1L          equ	4030	;# 
   176   000FBF                     CCPR1H          equ	4031	;# 
   177   000FC0                     ADCON2          equ	4032	;# 
   178   000FC1                     ADCON1          equ	4033	;# 
   179   000FC2                     ADCON0          equ	4034	;# 
   180   000FC3                     ADRES           equ	4035	;# 
   181   000FC3                     ADRESL          equ	4035	;# 
   182   000FC4                     ADRESH          equ	4036	;# 
   183   000FC5                     SSPCON2         equ	4037	;# 
   184   000FC6                     SSPCON1         equ	4038	;# 
   185   000FC7                     SSPSTAT         equ	4039	;# 
   186   000FC8                     SSPADD          equ	4040	;# 
   187   000FC9                     SSPBUF          equ	4041	;# 
   188   000FCA                     T2CON           equ	4042	;# 
   189   000FCB                     PR2             equ	4043	;# 
   190   000FCB                     MEMCON          equ	4043	;# 
   191   000FCC                     TMR2            equ	4044	;# 
   192   000FCD                     T1CON           equ	4045	;# 
   193   000FCE                     TMR1            equ	4046	;# 
   194   000FCE                     TMR1L           equ	4046	;# 
   195   000FCF                     TMR1H           equ	4047	;# 
   196   000FD0                     RCON            equ	4048	;# 
   197   000FD1                     WDTCON          equ	4049	;# 
   198   000FD2                     HLVDCON         equ	4050	;# 
   199   000FD2                     LVDCON          equ	4050	;# 
   200   000FD3                     OSCCON          equ	4051	;# 
   201   000FD5                     T0CON           equ	4053	;# 
   202   000FD6                     TMR0            equ	4054	;# 
   203   000FD6                     TMR0L           equ	4054	;# 
   204   000FD7                     TMR0H           equ	4055	;# 
   205   000FD8                     STATUS          equ	4056	;# 
   206   000FD9                     FSR2            equ	4057	;# 
   207   000FD9                     FSR2L           equ	4057	;# 
   208   000FDA                     FSR2H           equ	4058	;# 
   209   000FDB                     PLUSW2          equ	4059	;# 
   210   000FDC                     PREINC2         equ	4060	;# 
   211   000FDD                     POSTDEC2        equ	4061	;# 
   212   000FDE                     POSTINC2        equ	4062	;# 
   213   000FDF                     INDF2           equ	4063	;# 
   214   000FE0                     BSR             equ	4064	;# 
   215   000FE1                     FSR1            equ	4065	;# 
   216   000FE1                     FSR1L           equ	4065	;# 
   217   000FE2                     FSR1H           equ	4066	;# 
   218   000FE3                     PLUSW1          equ	4067	;# 
   219   000FE4                     PREINC1         equ	4068	;# 
   220   000FE5                     POSTDEC1        equ	4069	;# 
   221   000FE6                     POSTINC1        equ	4070	;# 
   222   000FE7                     INDF1           equ	4071	;# 
   223   000FE8                     WREG            equ	4072	;# 
   224   000FE9                     FSR0            equ	4073	;# 
   225   000FE9                     FSR0L           equ	4073	;# 
   226   000FEA                     FSR0H           equ	4074	;# 
   227   000FEB                     PLUSW0          equ	4075	;# 
   228   000FEC                     PREINC0         equ	4076	;# 
   229   000FED                     POSTDEC0        equ	4077	;# 
   230   000FEE                     POSTINC0        equ	4078	;# 
   231   000FEF                     INDF0           equ	4079	;# 
   232   000FF0                     INTCON3         equ	4080	;# 
   233   000FF1                     INTCON2         equ	4081	;# 
   234   000FF2                     INTCON          equ	4082	;# 
   235   000FF3                     PROD            equ	4083	;# 
   236   000FF3                     PRODL           equ	4083	;# 
   237   000FF4                     PRODH           equ	4084	;# 
   238   000FF5                     TABLAT          equ	4085	;# 
   239   000FF6                     TBLPTR          equ	4086	;# 
   240   000FF6                     TBLPTRL         equ	4086	;# 
   241   000FF7                     TBLPTRH         equ	4087	;# 
   242   000FF8                     TBLPTRU         equ	4088	;# 
   243   000FF9                     PCLAT           equ	4089	;# 
   244   000FF9                     PC              equ	4089	;# 
   245   000FF9                     PCL             equ	4089	;# 
   246   000FFA                     PCLATH          equ	4090	;# 
   247   000FFB                     PCLATU          equ	4091	;# 
   248   000FFC                     STKPTR          equ	4092	;# 
   249   000FFD                     TOS             equ	4093	;# 
   250   000FFD                     TOSL            equ	4093	;# 
   251   000FFE                     TOSH            equ	4094	;# 
   252   000FFF                     TOSU            equ	4095	;# 
   253   000F80                     PORTA           equ	3968	;# 
   254   000F81                     PORTB           equ	3969	;# 
   255   000F82                     PORTC           equ	3970	;# 
   256   000F83                     PORTD           equ	3971	;# 
   257   000F84                     PORTE           equ	3972	;# 
   258   000F89                     LATA            equ	3977	;# 
   259   000F8A                     LATB            equ	3978	;# 
   260   000F8B                     LATC            equ	3979	;# 
   261   000F8C                     LATD            equ	3980	;# 
   262   000F8D                     LATE            equ	3981	;# 
   263   000F92                     TRISA           equ	3986	;# 
   264   000F92                     DDRA            equ	3986	;# 
   265   000F93                     TRISB           equ	3987	;# 
   266   000F93                     DDRB            equ	3987	;# 
   267   000F94                     TRISC           equ	3988	;# 
   268   000F94                     DDRC            equ	3988	;# 
   269   000F95                     TRISD           equ	3989	;# 
   270   000F95                     DDRD            equ	3989	;# 
   271   000F96                     TRISE           equ	3990	;# 
   272   000F96                     DDRE            equ	3990	;# 
   273   000F9B                     OSCTUNE         equ	3995	;# 
   274   000F9D                     PIE1            equ	3997	;# 
   275   000F9E                     PIR1            equ	3998	;# 
   276   000F9F                     IPR1            equ	3999	;# 
   277   000FA0                     PIE2            equ	4000	;# 
   278   000FA1                     PIR2            equ	4001	;# 
   279   000FA2                     IPR2            equ	4002	;# 
   280   000FA6                     EECON1          equ	4006	;# 
   281   000FA7                     EECON2          equ	4007	;# 
   282   000FA8                     EEDATA          equ	4008	;# 
   283   000FA9                     EEADR           equ	4009	;# 
   284   000FAB                     RCSTA           equ	4011	;# 
   285   000FAB                     RCSTA1          equ	4011	;# 
   286   000FAC                     TXSTA           equ	4012	;# 
   287   000FAC                     TXSTA1          equ	4012	;# 
   288   000FAD                     TXREG           equ	4013	;# 
   289   000FAD                     TXREG1          equ	4013	;# 
   290   000FAE                     RCREG           equ	4014	;# 
   291   000FAE                     RCREG1          equ	4014	;# 
   292   000FAF                     SPBRG           equ	4015	;# 
   293   000FAF                     SPBRG1          equ	4015	;# 
   294   000FB0                     SPBRGH          equ	4016	;# 
   295   000FB1                     T3CON           equ	4017	;# 
   296   000FB2                     TMR3            equ	4018	;# 
   297   000FB2                     TMR3L           equ	4018	;# 
   298   000FB3                     TMR3H           equ	4019	;# 
   299   000FB4                     CMCON           equ	4020	;# 
   300   000FB5                     CVRCON          equ	4021	;# 
   301   000FB6                     ECCP1AS         equ	4022	;# 
   302   000FB7                     ECCP1DEL        equ	4023	;# 
   303   000FB7                     PWM1CON         equ	4023	;# 
   304   000FB8                     BAUDCON         equ	4024	;# 
   305   000FB8                     BAUDCTL         equ	4024	;# 
   306   000FBA                     CCP2CON         equ	4026	;# 
   307   000FBB                     CCPR2           equ	4027	;# 
   308   000FBB                     CCPR2L          equ	4027	;# 
   309   000FBC                     CCPR2H          equ	4028	;# 
   310   000FBD                     CCP1CON         equ	4029	;# 
   311   000FBD                     ECCP1CON        equ	4029	;# 
   312   000FBE                     CCPR1           equ	4030	;# 
   313   000FBE                     CCPR1L          equ	4030	;# 
   314   000FBF                     CCPR1H          equ	4031	;# 
   315   000FC0                     ADCON2          equ	4032	;# 
   316   000FC1                     ADCON1          equ	4033	;# 
   317   000FC2                     ADCON0          equ	4034	;# 
   318   000FC3                     ADRES           equ	4035	;# 
   319   000FC3                     ADRESL          equ	4035	;# 
   320   000FC4                     ADRESH          equ	4036	;# 
   321   000FC5                     SSPCON2         equ	4037	;# 
   322   000FC6                     SSPCON1         equ	4038	;# 
   323   000FC7                     SSPSTAT         equ	4039	;# 
   324   000FC8                     SSPADD          equ	4040	;# 
   325   000FC9                     SSPBUF          equ	4041	;# 
   326   000FCA                     T2CON           equ	4042	;# 
   327   000FCB                     PR2             equ	4043	;# 
   328   000FCB                     MEMCON          equ	4043	;# 
   329   000FCC                     TMR2            equ	4044	;# 
   330   000FCD                     T1CON           equ	4045	;# 
   331   000FCE                     TMR1            equ	4046	;# 
   332   000FCE                     TMR1L           equ	4046	;# 
   333   000FCF                     TMR1H           equ	4047	;# 
   334   000FD0                     RCON            equ	4048	;# 
   335   000FD1                     WDTCON          equ	4049	;# 
   336   000FD2                     HLVDCON         equ	4050	;# 
   337   000FD2                     LVDCON          equ	4050	;# 
   338   000FD3                     OSCCON          equ	4051	;# 
   339   000FD5                     T0CON           equ	4053	;# 
   340   000FD6                     TMR0            equ	4054	;# 
   341   000FD6                     TMR0L           equ	4054	;# 
   342   000FD7                     TMR0H           equ	4055	;# 
   343   000FD8                     STATUS          equ	4056	;# 
   344   000FD9                     FSR2            equ	4057	;# 
   345   000FD9                     FSR2L           equ	4057	;# 
   346   000FDA                     FSR2H           equ	4058	;# 
   347   000FDB                     PLUSW2          equ	4059	;# 
   348   000FDC                     PREINC2         equ	4060	;# 
   349   000FDD                     POSTDEC2        equ	4061	;# 
   350   000FDE                     POSTINC2        equ	4062	;# 
   351   000FDF                     INDF2           equ	4063	;# 
   352   000FE0                     BSR             equ	4064	;# 
   353   000FE1                     FSR1            equ	4065	;# 
   354   000FE1                     FSR1L           equ	4065	;# 
   355   000FE2                     FSR1H           equ	4066	;# 
   356   000FE3                     PLUSW1          equ	4067	;# 
   357   000FE4                     PREINC1         equ	4068	;# 
   358   000FE5                     POSTDEC1        equ	4069	;# 
   359   000FE6                     POSTINC1        equ	4070	;# 
   360   000FE7                     INDF1           equ	4071	;# 
   361   000FE8                     WREG            equ	4072	;# 
   362   000FE9                     FSR0            equ	4073	;# 
   363   000FE9                     FSR0L           equ	4073	;# 
   364   000FEA                     FSR0H           equ	4074	;# 
   365   000FEB                     PLUSW0          equ	4075	;# 
   366   000FEC                     PREINC0         equ	4076	;# 
   367   000FED                     POSTDEC0        equ	4077	;# 
   368   000FEE                     POSTINC0        equ	4078	;# 
   369   000FEF                     INDF0           equ	4079	;# 
   370   000FF0                     INTCON3         equ	4080	;# 
   371   000FF1                     INTCON2         equ	4081	;# 
   372   000FF2                     INTCON          equ	4082	;# 
   373   000FF3                     PROD            equ	4083	;# 
   374   000FF3                     PRODL           equ	4083	;# 
   375   000FF4                     PRODH           equ	4084	;# 
   376   000FF5                     TABLAT          equ	4085	;# 
   377   000FF6                     TBLPTR          equ	4086	;# 
   378   000FF6                     TBLPTRL         equ	4086	;# 
   379   000FF7                     TBLPTRH         equ	4087	;# 
   380   000FF8                     TBLPTRU         equ	4088	;# 
   381   000FF9                     PCLAT           equ	4089	;# 
   382   000FF9                     PC              equ	4089	;# 
   383   000FF9                     PCL             equ	4089	;# 
   384   000FFA                     PCLATH          equ	4090	;# 
   385   000FFB                     PCLATU          equ	4091	;# 
   386   000FFC                     STKPTR          equ	4092	;# 
   387   000FFD                     TOS             equ	4093	;# 
   388   000FFD                     TOSL            equ	4093	;# 
   389   000FFE                     TOSH            equ	4094	;# 
   390   000FFF                     TOSU            equ	4095	;# 
   391   000F80                     PORTA           equ	3968	;# 
   392   000F81                     PORTB           equ	3969	;# 
   393   000F82                     PORTC           equ	3970	;# 
   394   000F83                     PORTD           equ	3971	;# 
   395   000F84                     PORTE           equ	3972	;# 
   396   000F89                     LATA            equ	3977	;# 
   397   000F8A                     LATB            equ	3978	;# 
   398   000F8B                     LATC            equ	3979	;# 
   399   000F8C                     LATD            equ	3980	;# 
   400   000F8D                     LATE            equ	3981	;# 
   401   000F92                     TRISA           equ	3986	;# 
   402   000F92                     DDRA            equ	3986	;# 
   403   000F93                     TRISB           equ	3987	;# 
   404   000F93                     DDRB            equ	3987	;# 
   405   000F94                     TRISC           equ	3988	;# 
   406   000F94                     DDRC            equ	3988	;# 
   407   000F95                     TRISD           equ	3989	;# 
   408   000F95                     DDRD            equ	3989	;# 
   409   000F96                     TRISE           equ	3990	;# 
   410   000F96                     DDRE            equ	3990	;# 
   411   000F9B                     OSCTUNE         equ	3995	;# 
   412   000F9D                     PIE1            equ	3997	;# 
   413   000F9E                     PIR1            equ	3998	;# 
   414   000F9F                     IPR1            equ	3999	;# 
   415   000FA0                     PIE2            equ	4000	;# 
   416   000FA1                     PIR2            equ	4001	;# 
   417   000FA2                     IPR2            equ	4002	;# 
   418   000FA6                     EECON1          equ	4006	;# 
   419   000FA7                     EECON2          equ	4007	;# 
   420   000FA8                     EEDATA          equ	4008	;# 
   421   000FA9                     EEADR           equ	4009	;# 
   422   000FAB                     RCSTA           equ	4011	;# 
   423   000FAB                     RCSTA1          equ	4011	;# 
   424   000FAC                     TXSTA           equ	4012	;# 
   425   000FAC                     TXSTA1          equ	4012	;# 
   426   000FAD                     TXREG           equ	4013	;# 
   427   000FAD                     TXREG1          equ	4013	;# 
   428   000FAE                     RCREG           equ	4014	;# 
   429   000FAE                     RCREG1          equ	4014	;# 
   430   000FAF                     SPBRG           equ	4015	;# 
   431   000FAF                     SPBRG1          equ	4015	;# 
   432   000FB0                     SPBRGH          equ	4016	;# 
   433   000FB1                     T3CON           equ	4017	;# 
   434   000FB2                     TMR3            equ	4018	;# 
   435   000FB2                     TMR3L           equ	4018	;# 
   436   000FB3                     TMR3H           equ	4019	;# 
   437   000FB4                     CMCON           equ	4020	;# 
   438   000FB5                     CVRCON          equ	4021	;# 
   439   000FB6                     ECCP1AS         equ	4022	;# 
   440   000FB7                     ECCP1DEL        equ	4023	;# 
   441   000FB7                     PWM1CON         equ	4023	;# 
   442   000FB8                     BAUDCON         equ	4024	;# 
   443   000FB8                     BAUDCTL         equ	4024	;# 
   444   000FBA                     CCP2CON         equ	4026	;# 
   445   000FBB                     CCPR2           equ	4027	;# 
   446   000FBB                     CCPR2L          equ	4027	;# 
   447   000FBC                     CCPR2H          equ	4028	;# 
   448   000FBD                     CCP1CON         equ	4029	;# 
   449   000FBD                     ECCP1CON        equ	4029	;# 
   450   000FBE                     CCPR1           equ	4030	;# 
   451   000FBE                     CCPR1L          equ	4030	;# 
   452   000FBF                     CCPR1H          equ	4031	;# 
   453   000FC0                     ADCON2          equ	4032	;# 
   454   000FC1                     ADCON1          equ	4033	;# 
   455   000FC2                     ADCON0          equ	4034	;# 
   456   000FC3                     ADRES           equ	4035	;# 
   457   000FC3                     ADRESL          equ	4035	;# 
   458   000FC4                     ADRESH          equ	4036	;# 
   459   000FC5                     SSPCON2         equ	4037	;# 
   460   000FC6                     SSPCON1         equ	4038	;# 
   461   000FC7                     SSPSTAT         equ	4039	;# 
   462   000FC8                     SSPADD          equ	4040	;# 
   463   000FC9                     SSPBUF          equ	4041	;# 
   464   000FCA                     T2CON           equ	4042	;# 
   465   000FCB                     PR2             equ	4043	;# 
   466   000FCB                     MEMCON          equ	4043	;# 
   467   000FCC                     TMR2            equ	4044	;# 
   468   000FCD                     T1CON           equ	4045	;# 
   469   000FCE                     TMR1            equ	4046	;# 
   470   000FCE                     TMR1L           equ	4046	;# 
   471   000FCF                     TMR1H           equ	4047	;# 
   472   000FD0                     RCON            equ	4048	;# 
   473   000FD1                     WDTCON          equ	4049	;# 
   474   000FD2                     HLVDCON         equ	4050	;# 
   475   000FD2                     LVDCON          equ	4050	;# 
   476   000FD3                     OSCCON          equ	4051	;# 
   477   000FD5                     T0CON           equ	4053	;# 
   478   000FD6                     TMR0            equ	4054	;# 
   479   000FD6                     TMR0L           equ	4054	;# 
   480   000FD7                     TMR0H           equ	4055	;# 
   481   000FD8                     STATUS          equ	4056	;# 
   482   000FD9                     FSR2            equ	4057	;# 
   483   000FD9                     FSR2L           equ	4057	;# 
   484   000FDA                     FSR2H           equ	4058	;# 
   485   000FDB                     PLUSW2          equ	4059	;# 
   486   000FDC                     PREINC2         equ	4060	;# 
   487   000FDD                     POSTDEC2        equ	4061	;# 
   488   000FDE                     POSTINC2        equ	4062	;# 
   489   000FDF                     INDF2           equ	4063	;# 
   490   000FE0                     BSR             equ	4064	;# 
   491   000FE1                     FSR1            equ	4065	;# 
   492   000FE1                     FSR1L           equ	4065	;# 
   493   000FE2                     FSR1H           equ	4066	;# 
   494   000FE3                     PLUSW1          equ	4067	;# 
   495   000FE4                     PREINC1         equ	4068	;# 
   496   000FE5                     POSTDEC1        equ	4069	;# 
   497   000FE6                     POSTINC1        equ	4070	;# 
   498   000FE7                     INDF1           equ	4071	;# 
   499   000FE8                     WREG            equ	4072	;# 
   500   000FE9                     FSR0            equ	4073	;# 
   501   000FE9                     FSR0L           equ	4073	;# 
   502   000FEA                     FSR0H           equ	4074	;# 
   503   000FEB                     PLUSW0          equ	4075	;# 
   504   000FEC                     PREINC0         equ	4076	;# 
   505   000FED                     POSTDEC0        equ	4077	;# 
   506   000FEE                     POSTINC0        equ	4078	;# 
   507   000FEF                     INDF0           equ	4079	;# 
   508   000FF0                     INTCON3         equ	4080	;# 
   509   000FF1                     INTCON2         equ	4081	;# 
   510   000FF2                     INTCON          equ	4082	;# 
   511   000FF3                     PROD            equ	4083	;# 
   512   000FF3                     PRODL           equ	4083	;# 
   513   000FF4                     PRODH           equ	4084	;# 
   514   000FF5                     TABLAT          equ	4085	;# 
   515   000FF6                     TBLPTR          equ	4086	;# 
   516   000FF6                     TBLPTRL         equ	4086	;# 
   517   000FF7                     TBLPTRH         equ	4087	;# 
   518   000FF8                     TBLPTRU         equ	4088	;# 
   519   000FF9                     PCLAT           equ	4089	;# 
   520   000FF9                     PC              equ	4089	;# 
   521   000FF9                     PCL             equ	4089	;# 
   522   000FFA                     PCLATH          equ	4090	;# 
   523   000FFB                     PCLATU          equ	4091	;# 
   524   000FFC                     STKPTR          equ	4092	;# 
   525   000FFD                     TOS             equ	4093	;# 
   526   000FFD                     TOSL            equ	4093	;# 
   527   000FFE                     TOSH            equ	4094	;# 
   528   000FFF                     TOSU            equ	4095	;# 
   529   000F80                     PORTA           equ	3968	;# 
   530   000F81                     PORTB           equ	3969	;# 
   531   000F82                     PORTC           equ	3970	;# 
   532   000F83                     PORTD           equ	3971	;# 
   533   000F84                     PORTE           equ	3972	;# 
   534   000F89                     LATA            equ	3977	;# 
   535   000F8A                     LATB            equ	3978	;# 
   536   000F8B                     LATC            equ	3979	;# 
   537   000F8C                     LATD            equ	3980	;# 
   538   000F8D                     LATE            equ	3981	;# 
   539   000F92                     TRISA           equ	3986	;# 
   540   000F92                     DDRA            equ	3986	;# 
   541   000F93                     TRISB           equ	3987	;# 
   542   000F93                     DDRB            equ	3987	;# 
   543   000F94                     TRISC           equ	3988	;# 
   544   000F94                     DDRC            equ	3988	;# 
   545   000F95                     TRISD           equ	3989	;# 
   546   000F95                     DDRD            equ	3989	;# 
   547   000F96                     TRISE           equ	3990	;# 
   548   000F96                     DDRE            equ	3990	;# 
   549   000F9B                     OSCTUNE         equ	3995	;# 
   550   000F9D                     PIE1            equ	3997	;# 
   551   000F9E                     PIR1            equ	3998	;# 
   552   000F9F                     IPR1            equ	3999	;# 
   553   000FA0                     PIE2            equ	4000	;# 
   554   000FA1                     PIR2            equ	4001	;# 
   555   000FA2                     IPR2            equ	4002	;# 
   556   000FA6                     EECON1          equ	4006	;# 
   557   000FA7                     EECON2          equ	4007	;# 
   558   000FA8                     EEDATA          equ	4008	;# 
   559   000FA9                     EEADR           equ	4009	;# 
   560   000FAB                     RCSTA           equ	4011	;# 
   561   000FAB                     RCSTA1          equ	4011	;# 
   562   000FAC                     TXSTA           equ	4012	;# 
   563   000FAC                     TXSTA1          equ	4012	;# 
   564   000FAD                     TXREG           equ	4013	;# 
   565   000FAD                     TXREG1          equ	4013	;# 
   566   000FAE                     RCREG           equ	4014	;# 
   567   000FAE                     RCREG1          equ	4014	;# 
   568   000FAF                     SPBRG           equ	4015	;# 
   569   000FAF                     SPBRG1          equ	4015	;# 
   570   000FB0                     SPBRGH          equ	4016	;# 
   571   000FB1                     T3CON           equ	4017	;# 
   572   000FB2                     TMR3            equ	4018	;# 
   573   000FB2                     TMR3L           equ	4018	;# 
   574   000FB3                     TMR3H           equ	4019	;# 
   575   000FB4                     CMCON           equ	4020	;# 
   576   000FB5                     CVRCON          equ	4021	;# 
   577   000FB6                     ECCP1AS         equ	4022	;# 
   578   000FB7                     ECCP1DEL        equ	4023	;# 
   579   000FB7                     PWM1CON         equ	4023	;# 
   580   000FB8                     BAUDCON         equ	4024	;# 
   581   000FB8                     BAUDCTL         equ	4024	;# 
   582   000FBA                     CCP2CON         equ	4026	;# 
   583   000FBB                     CCPR2           equ	4027	;# 
   584   000FBB                     CCPR2L          equ	4027	;# 
   585   000FBC                     CCPR2H          equ	4028	;# 
   586   000FBD                     CCP1CON         equ	4029	;# 
   587   000FBD                     ECCP1CON        equ	4029	;# 
   588   000FBE                     CCPR1           equ	4030	;# 
   589   000FBE                     CCPR1L          equ	4030	;# 
   590   000FBF                     CCPR1H          equ	4031	;# 
   591   000FC0                     ADCON2          equ	4032	;# 
   592   000FC1                     ADCON1          equ	4033	;# 
   593   000FC2                     ADCON0          equ	4034	;# 
   594   000FC3                     ADRES           equ	4035	;# 
   595   000FC3                     ADRESL          equ	4035	;# 
   596   000FC4                     ADRESH          equ	4036	;# 
   597   000FC5                     SSPCON2         equ	4037	;# 
   598   000FC6                     SSPCON1         equ	4038	;# 
   599   000FC7                     SSPSTAT         equ	4039	;# 
   600   000FC8                     SSPADD          equ	4040	;# 
   601   000FC9                     SSPBUF          equ	4041	;# 
   602   000FCA                     T2CON           equ	4042	;# 
   603   000FCB                     PR2             equ	4043	;# 
   604   000FCB                     MEMCON          equ	4043	;# 
   605   000FCC                     TMR2            equ	4044	;# 
   606   000FCD                     T1CON           equ	4045	;# 
   607   000FCE                     TMR1            equ	4046	;# 
   608   000FCE                     TMR1L           equ	4046	;# 
   609   000FCF                     TMR1H           equ	4047	;# 
   610   000FD0                     RCON            equ	4048	;# 
   611   000FD1                     WDTCON          equ	4049	;# 
   612   000FD2                     HLVDCON         equ	4050	;# 
   613   000FD2                     LVDCON          equ	4050	;# 
   614   000FD3                     OSCCON          equ	4051	;# 
   615   000FD5                     T0CON           equ	4053	;# 
   616   000FD6                     TMR0            equ	4054	;# 
   617   000FD6                     TMR0L           equ	4054	;# 
   618   000FD7                     TMR0H           equ	4055	;# 
   619   000FD8                     STATUS          equ	4056	;# 
   620   000FD9                     FSR2            equ	4057	;# 
   621   000FD9                     FSR2L           equ	4057	;# 
   622   000FDA                     FSR2H           equ	4058	;# 
   623   000FDB                     PLUSW2          equ	4059	;# 
   624   000FDC                     PREINC2         equ	4060	;# 
   625   000FDD                     POSTDEC2        equ	4061	;# 
   626   000FDE                     POSTINC2        equ	4062	;# 
   627   000FDF                     INDF2           equ	4063	;# 
   628   000FE0                     BSR             equ	4064	;# 
   629   000FE1                     FSR1            equ	4065	;# 
   630   000FE1                     FSR1L           equ	4065	;# 
   631   000FE2                     FSR1H           equ	4066	;# 
   632   000FE3                     PLUSW1          equ	4067	;# 
   633   000FE4                     PREINC1         equ	4068	;# 
   634   000FE5                     POSTDEC1        equ	4069	;# 
   635   000FE6                     POSTINC1        equ	4070	;# 
   636   000FE7                     INDF1           equ	4071	;# 
   637   000FE8                     WREG            equ	4072	;# 
   638   000FE9                     FSR0            equ	4073	;# 
   639   000FE9                     FSR0L           equ	4073	;# 
   640   000FEA                     FSR0H           equ	4074	;# 
   641   000FEB                     PLUSW0          equ	4075	;# 
   642   000FEC                     PREINC0         equ	4076	;# 
   643   000FED                     POSTDEC0        equ	4077	;# 
   644   000FEE                     POSTINC0        equ	4078	;# 
   645   000FEF                     INDF0           equ	4079	;# 
   646   000FF0                     INTCON3         equ	4080	;# 
   647   000FF1                     INTCON2         equ	4081	;# 
   648   000FF2                     INTCON          equ	4082	;# 
   649   000FF3                     PROD            equ	4083	;# 
   650   000FF3                     PRODL           equ	4083	;# 
   651   000FF4                     PRODH           equ	4084	;# 
   652   000FF5                     TABLAT          equ	4085	;# 
   653   000FF6                     TBLPTR          equ	4086	;# 
   654   000FF6                     TBLPTRL         equ	4086	;# 
   655   000FF7                     TBLPTRH         equ	4087	;# 
   656   000FF8                     TBLPTRU         equ	4088	;# 
   657   000FF9                     PCLAT           equ	4089	;# 
   658   000FF9                     PC              equ	4089	;# 
   659   000FF9                     PCL             equ	4089	;# 
   660   000FFA                     PCLATH          equ	4090	;# 
   661   000FFB                     PCLATU          equ	4091	;# 
   662   000FFC                     STKPTR          equ	4092	;# 
   663   000FFD                     TOS             equ	4093	;# 
   664   000FFD                     TOSL            equ	4093	;# 
   665   000FFE                     TOSH            equ	4094	;# 
   666   000FFF                     TOSU            equ	4095	;# 
   667   000F80                     PORTA           equ	3968	;# 
   668   000F81                     PORTB           equ	3969	;# 
   669   000F82                     PORTC           equ	3970	;# 
   670   000F83                     PORTD           equ	3971	;# 
   671   000F84                     PORTE           equ	3972	;# 
   672   000F89                     LATA            equ	3977	;# 
   673   000F8A                     LATB            equ	3978	;# 
   674   000F8B                     LATC            equ	3979	;# 
   675   000F8C                     LATD            equ	3980	;# 
   676   000F8D                     LATE            equ	3981	;# 
   677   000F92                     TRISA           equ	3986	;# 
   678   000F92                     DDRA            equ	3986	;# 
   679   000F93                     TRISB           equ	3987	;# 
   680   000F93                     DDRB            equ	3987	;# 
   681   000F94                     TRISC           equ	3988	;# 
   682   000F94                     DDRC            equ	3988	;# 
   683   000F95                     TRISD           equ	3989	;# 
   684   000F95                     DDRD            equ	3989	;# 
   685   000F96                     TRISE           equ	3990	;# 
   686   000F96                     DDRE            equ	3990	;# 
   687   000F9B                     OSCTUNE         equ	3995	;# 
   688   000F9D                     PIE1            equ	3997	;# 
   689   000F9E                     PIR1            equ	3998	;# 
   690   000F9F                     IPR1            equ	3999	;# 
   691   000FA0                     PIE2            equ	4000	;# 
   692   000FA1                     PIR2            equ	4001	;# 
   693   000FA2                     IPR2            equ	4002	;# 
   694   000FA6                     EECON1          equ	4006	;# 
   695   000FA7                     EECON2          equ	4007	;# 
   696   000FA8                     EEDATA          equ	4008	;# 
   697   000FA9                     EEADR           equ	4009	;# 
   698   000FAB                     RCSTA           equ	4011	;# 
   699   000FAB                     RCSTA1          equ	4011	;# 
   700   000FAC                     TXSTA           equ	4012	;# 
   701   000FAC                     TXSTA1          equ	4012	;# 
   702   000FAD                     TXREG           equ	4013	;# 
   703   000FAD                     TXREG1          equ	4013	;# 
   704   000FAE                     RCREG           equ	4014	;# 
   705   000FAE                     RCREG1          equ	4014	;# 
   706   000FAF                     SPBRG           equ	4015	;# 
   707   000FAF                     SPBRG1          equ	4015	;# 
   708   000FB0                     SPBRGH          equ	4016	;# 
   709   000FB1                     T3CON           equ	4017	;# 
   710   000FB2                     TMR3            equ	4018	;# 
   711   000FB2                     TMR3L           equ	4018	;# 
   712   000FB3                     TMR3H           equ	4019	;# 
   713   000FB4                     CMCON           equ	4020	;# 
   714   000FB5                     CVRCON          equ	4021	;# 
   715   000FB6                     ECCP1AS         equ	4022	;# 
   716   000FB7                     ECCP1DEL        equ	4023	;# 
   717   000FB7                     PWM1CON         equ	4023	;# 
   718   000FB8                     BAUDCON         equ	4024	;# 
   719   000FB8                     BAUDCTL         equ	4024	;# 
   720   000FBA                     CCP2CON         equ	4026	;# 
   721   000FBB                     CCPR2           equ	4027	;# 
   722   000FBB                     CCPR2L          equ	4027	;# 
   723   000FBC                     CCPR2H          equ	4028	;# 
   724   000FBD                     CCP1CON         equ	4029	;# 
   725   000FBD                     ECCP1CON        equ	4029	;# 
   726   000FBE                     CCPR1           equ	4030	;# 
   727   000FBE                     CCPR1L          equ	4030	;# 
   728   000FBF                     CCPR1H          equ	4031	;# 
   729   000FC0                     ADCON2          equ	4032	;# 
   730   000FC1                     ADCON1          equ	4033	;# 
   731   000FC2                     ADCON0          equ	4034	;# 
   732   000FC3                     ADRES           equ	4035	;# 
   733   000FC3                     ADRESL          equ	4035	;# 
   734   000FC4                     ADRESH          equ	4036	;# 
   735   000FC5                     SSPCON2         equ	4037	;# 
   736   000FC6                     SSPCON1         equ	4038	;# 
   737   000FC7                     SSPSTAT         equ	4039	;# 
   738   000FC8                     SSPADD          equ	4040	;# 
   739   000FC9                     SSPBUF          equ	4041	;# 
   740   000FCA                     T2CON           equ	4042	;# 
   741   000FCB                     PR2             equ	4043	;# 
   742   000FCB                     MEMCON          equ	4043	;# 
   743   000FCC                     TMR2            equ	4044	;# 
   744   000FCD                     T1CON           equ	4045	;# 
   745   000FCE                     TMR1            equ	4046	;# 
   746   000FCE                     TMR1L           equ	4046	;# 
   747   000FCF                     TMR1H           equ	4047	;# 
   748   000FD0                     RCON            equ	4048	;# 
   749   000FD1                     WDTCON          equ	4049	;# 
   750   000FD2                     HLVDCON         equ	4050	;# 
   751   000FD2                     LVDCON          equ	4050	;# 
   752   000FD3                     OSCCON          equ	4051	;# 
   753   000FD5                     T0CON           equ	4053	;# 
   754   000FD6                     TMR0            equ	4054	;# 
   755   000FD6                     TMR0L           equ	4054	;# 
   756   000FD7                     TMR0H           equ	4055	;# 
   757   000FD8                     STATUS          equ	4056	;# 
   758   000FD9                     FSR2            equ	4057	;# 
   759   000FD9                     FSR2L           equ	4057	;# 
   760   000FDA                     FSR2H           equ	4058	;# 
   761   000FDB                     PLUSW2          equ	4059	;# 
   762   000FDC                     PREINC2         equ	4060	;# 
   763   000FDD                     POSTDEC2        equ	4061	;# 
   764   000FDE                     POSTINC2        equ	4062	;# 
   765   000FDF                     INDF2           equ	4063	;# 
   766   000FE0                     BSR             equ	4064	;# 
   767   000FE1                     FSR1            equ	4065	;# 
   768   000FE1                     FSR1L           equ	4065	;# 
   769   000FE2                     FSR1H           equ	4066	;# 
   770   000FE3                     PLUSW1          equ	4067	;# 
   771   000FE4                     PREINC1         equ	4068	;# 
   772   000FE5                     POSTDEC1        equ	4069	;# 
   773   000FE6                     POSTINC1        equ	4070	;# 
   774   000FE7                     INDF1           equ	4071	;# 
   775   000FE8                     WREG            equ	4072	;# 
   776   000FE9                     FSR0            equ	4073	;# 
   777   000FE9                     FSR0L           equ	4073	;# 
   778   000FEA                     FSR0H           equ	4074	;# 
   779   000FEB                     PLUSW0          equ	4075	;# 
   780   000FEC                     PREINC0         equ	4076	;# 
   781   000FED                     POSTDEC0        equ	4077	;# 
   782   000FEE                     POSTINC0        equ	4078	;# 
   783   000FEF                     INDF0           equ	4079	;# 
   784   000FF0                     INTCON3         equ	4080	;# 
   785   000FF1                     INTCON2         equ	4081	;# 
   786   000FF2                     INTCON          equ	4082	;# 
   787   000FF3                     PROD            equ	4083	;# 
   788   000FF3                     PRODL           equ	4083	;# 
   789   000FF4                     PRODH           equ	4084	;# 
   790   000FF5                     TABLAT          equ	4085	;# 
   791   000FF6                     TBLPTR          equ	4086	;# 
   792   000FF6                     TBLPTRL         equ	4086	;# 
   793   000FF7                     TBLPTRH         equ	4087	;# 
   794   000FF8                     TBLPTRU         equ	4088	;# 
   795   000FF9                     PCLAT           equ	4089	;# 
   796   000FF9                     PC              equ	4089	;# 
   797   000FF9                     PCL             equ	4089	;# 
   798   000FFA                     PCLATH          equ	4090	;# 
   799   000FFB                     PCLATU          equ	4091	;# 
   800   000FFC                     STKPTR          equ	4092	;# 
   801   000FFD                     TOS             equ	4093	;# 
   802   000FFD                     TOSL            equ	4093	;# 
   803   000FFE                     TOSH            equ	4094	;# 
   804   000FFF                     TOSU            equ	4095	;# 
   805                           
   806                           	psect	smallconst
   807   000200                     __psmallconst:
   808                           	callstack 0
   809   000200  00                 	db	0
   810   000201                     _lookUpTable:
   811                           	callstack 0
   812   000201  00                 	db	0
   813   000202  01                 	db	1
   814   000203  02                 	db	2
   815   000204  03                 	db	3
   816   000205  04                 	db	4
   817   000206  05                 	db	5
   818   000207  06                 	db	6
   819   000208  07                 	db	7
   820   000209  08                 	db	8
   821   00020A  09                 	db	9
   822   00020B  0A                 	db	10
   823   00020C  0B                 	db	11
   824   00020D  0C                 	db	12
   825   00020E  0D                 	db	13
   826   00020F  0E                 	db	14
   827   000210  F0                 	db	240
   828   000211  F1                 	db	241
   829   000212  E2                 	db	226
   830   000213  E3                 	db	227
   831   000214  B4                 	db	180
   832   000215  B1                 	db	177
   833   000216  96                 	db	150
   834   000217  97                 	db	151
   835   000218  78                 	db	120
   836   000219  71                 	db	113
   837   00021A  5A                 	db	90
   838   00021B  53                 	db	83
   839   00021C  3C                 	db	60
   840   00021D  35                 	db	53
   841   00021E  1E                 	db	30
   842   00021F                     __end_of_lookUpTable:
   843                           	callstack 0
   844   00021F                     STR_1:
   845   00021F  0A                 	db	10
   846   000220  0D                 	db	13
   847   000221  57                 	db	87	;'W'
   848   000222  65                 	db	101	;'e'
   849   000223  6C                 	db	108	;'l'
   850   000224  63                 	db	99	;'c'
   851   000225  6F                 	db	111	;'o'
   852   000226  6D                 	db	109	;'m'
   853   000227  65                 	db	101	;'e'
   854   000228  20                 	db	32
   855   000229  74                 	db	116	;'t'
   856   00022A  6F                 	db	111	;'o'
   857   00022B  20                 	db	32
   858   00022C  43                 	db	67	;'C'
   859   00022D  68                 	db	104	;'h'
   860   00022E  61                 	db	97	;'a'
   861   00022F  6D                 	db	109	;'m'
   862   000230  61                 	db	97	;'a'
   863   000231  6C                 	db	108	;'l'
   864   000232  65                 	db	101	;'e'
   865   000233  6F                 	db	111	;'o'
   866   000234  6E                 	db	110	;'n'
   867   000235  21                 	db	33
   868   000236  20                 	db	32
   869   000237  0A                 	db	10
   870   000238  0D                 	db	13
   871   000239  00                 	db	0
   872   00023A  00                 	db	0
   873   00023B                     STR_2:
   874   00023B  0D                 	db	13
   875   00023C  2D                 	db	45
   876   00023D  3E                 	db	62	;'>'
   877   00023E  20                 	db	32
   878   00023F  52                 	db	82	;'R'
   879   000240  41                 	db	65	;'A'
   880   000241  30                 	db	48	;'0'
   881   000242  3A                 	db	58	;':'
   882   000243  20                 	db	32
   883   000244  25                 	db	37
   884   000245  64                 	db	100	;'d'
   885   000246  20                 	db	32
   886   000247  2D                 	db	45
   887   000248  2D                 	db	45
   888   000249  2D                 	db	45
   889   00024A  20                 	db	32
   890   00024B  52                 	db	82	;'R'
   891   00024C  41                 	db	65	;'A'
   892   00024D  31                 	db	49	;'1'
   893   00024E  3A                 	db	58	;':'
   894   00024F  20                 	db	32
   895   000250  25                 	db	37
   896   000251  64                 	db	100	;'d'
   897   000252  20                 	db	32
   898   000253  0A                 	db	10
   899   000254  00                 	db	0
   900   000255  00                 	db	0
   901   000256  00                 	db	0	; dummy byte at the end
   902   000200                     __smallconst    set	__psmallconst
   903   000200                     __mediumconst   set	__psmallconst
   904   000002                     __activetblptr  equ	2
   905                           
   906                           	psect	nvCOMRAM
   907   000077                     __pnvCOMRAM:
   908                           	callstack 0
   909   000077                     _sampleIndex:
   910                           	callstack 0
   911   000077                     	ds	1
   912   000FD6                     _TMR0           set	4054
   913   000FC3                     _ADRESL         set	4035
   914   000FC4                     _ADRESH         set	4036
   915   000FC1                     _ADCON1bits     set	4033
   916   000FC2                     _ADCON0bits     set	4034
   917   000FC0                     _ADCON2bits     set	4032
   918   000FC2                     _ADCON0         set	4034
   919   000FAB                     _RCSTAbits      set	4011
   920   000FB8                     _BAUDCONbits    set	4024
   921   000FAF                     _SPBRG          set	4015
   922   000F94                     _TRISCbits      set	3988
   923   000F8C                     _LATD           set	3980
   924   000FF2                     _INTCONbits     set	4082
   925   000FD5                     _T0CONbits      set	4053
   926   000FAE                     _RCREG          set	4014
   927   000F9E                     _PIR1bits       set	3998
   928   000F9B                     _OSCTUNEbits    set	3995
   929   000FD3                     _OSCCONbits     set	4051
   930   000F95                     _TRISD          set	3989
   931   000F92                     _TRISA          set	3986
   932   000FC1                     _ADCON1         set	4033
   933   000FAD                     _TXREG          set	4013
   934   000FAC                     _TXSTAbits      set	4012
   935                           
   936                           ; #config settings
   937                           
   938                           	psect	cinit
   939   00083A                     __pcinit:
   940                           	callstack 0
   941   00083A                     start_initialization:
   942                           	callstack 0
   943   00083A                     __initialization:
   944                           	callstack 0
   945                           
   946                           ; Clear objects allocated to BANK1 (256 bytes)
   947   00083A  EE01  F000         	lfsr	0,__pbssBANK1
   948   00083E  EE11 F000          	lfsr	1,256
   949   000842                     clear_0:
   950   000842  6AEE               	clrf	postinc0,c
   951   000844  50E5               	movf	postdec1,w,c
   952   000846  50E1               	movf	fsr1l,w,c
   953   000848  E1FC               	bnz	clear_0
   954   00084A  50E2               	movf	fsr1h,w,c
   955   00084C  E1FA               	bnz	clear_0
   956                           
   957                           ; Clear objects allocated to BANK0 (32 bytes)
   958   00084E  EE00  F080         	lfsr	0,__pbssBANK0
   959   000852  0E20               	movlw	32
   960   000854                     clear_1:
   961   000854  6AEE               	clrf	postinc0,c
   962   000856  06E8               	decf	wreg,f,c
   963   000858  E1FD               	bnz	clear_1
   964                           
   965                           ; Clear objects allocated to COMRAM (68 bytes)
   966   00085A  EE00  F002         	lfsr	0,__pbssCOMRAM
   967   00085E  0E44               	movlw	68
   968   000860                     clear_2:
   969   000860  6AEE               	clrf	postinc0,c
   970   000862  06E8               	decf	wreg,f,c
   971   000864  E1FD               	bnz	clear_2
   972   000866                     end_of_initialization:
   973                           	callstack 0
   974   000866                     __end_of__initialization:
   975                           	callstack 0
   976   000866  9001               	bcf	int$flags,0,c	;clear compiler interrupt flag (level 1)
   977   000868  9201               	bcf	int$flags,1,c	;clear compiler interrupt flag (level 2)
   978   00086A  0E00               	movlw	low (__Lmediumconst shr (0+16))
   979   00086C  6EF8               	movwf	tblptru,c
   980   00086E  0100               	movlb	0
   981   000870  EF3A  F004         	goto	_main	;jump to C main() function
   982                           
   983                           	psect	bssCOMRAM
   984   000002                     __pbssCOMRAM:
   985                           	callstack 0
   986   000002                     _dbuf:
   987                           	callstack 0
   988   000002                     	ds	32
   989   000022                     _averageRA1:
   990                           	callstack 0
   991   000022                     	ds	4
   992   000026                     _averageRA0:
   993                           	callstack 0
   994   000026                     	ds	4
   995   00002A                     _width:
   996                           	callstack 0
   997   00002A                     	ds	2
   998   00002C                     _prec:
   999                           	callstack 0
  1000   00002C                     	ds	2
  1001   00002E                     _avgResultRA0:
  1002                           	callstack 0
  1003   00002E                     	ds	2
  1004   000030                     _avgResultRA1:
  1005                           	callstack 0
  1006   000030                     	ds	2
  1007   000032                     _internalCounter:
  1008                           	callstack 0
  1009   000032                     	ds	2
  1010   000034                     _counter:
  1011                           	callstack 0
  1012   000034                     	ds	2
  1013   000036                     _parity:
  1014                           	callstack 0
  1015   000036                     	ds	2
  1016   000038                     _flags:
  1017                           	callstack 0
  1018   000038                     	ds	1
  1019   000039                     MotorADC@state:
  1020                           	callstack 0
  1021   000039                     	ds	1
  1022   00003A                     _temp:
  1023                           	callstack 0
  1024   00003A                     	ds	1
  1025   00003B                     _newLATA:
  1026                           	callstack 0
  1027   00003B                     	ds	1
  1028   00003C                     _hasBeenTimer:
  1029                           	callstack 0
  1030   00003C                     	ds	1
  1031   00003D                     _auxVar:
  1032                           	callstack 0
  1033   00003D                     	ds	1
  1034   00003E                     _trashwait:
  1035                           	callstack 0
  1036   00003E                     	ds	1
  1037   00003F                     _bitData:
  1038                           	callstack 0
  1039   00003F                     	ds	1
  1040   000040                     _data:
  1041                           	callstack 0
  1042   000040                     	ds	1
  1043   000041                     _address:
  1044                           	callstack 0
  1045   000041                     	ds	1
  1046   000042                     _configuration:
  1047                           	callstack 0
  1048   000042                     	ds	1
  1049   000043                     _oldAdc:
  1050                           	callstack 0
  1051   000043                     	ds	1
  1052   000044                     _oldConfiguration:
  1053                           	callstack 0
  1054   000044                     	ds	1
  1055   000045                     _newConfiguration:
  1056                           	callstack 0
  1057   000045                     	ds	1
  1058                           
  1059                           	psect	bssBANK0
  1060   000080                     __pbssBANK0:
  1061                           	callstack 0
  1062   000080                     _toPrint2:
  1063                           	callstack 0
  1064   000080                     	ds	32
  1065                           
  1066                           	psect	bssBANK1
  1067   000100                     __pbssBANK1:
  1068                           	callstack 0
  1069   000100                     _samplesRA1:
  1070                           	callstack 0
  1071   000100                     	ds	128
  1072   000180                     _samplesRA0:
  1073                           	callstack 0
  1074   000180                     	ds	128
  1075                           
  1076                           	psect	cstackCOMRAM
  1077   000046                     __pcstackCOMRAM:
  1078                           	callstack 0
  1079   000046                     ?___awdiv:
  1080                           	callstack 0
  1081   000046                     ?___awmod:
  1082                           	callstack 0
  1083   000046                     SIPutChar@value:
  1084                           	callstack 0
  1085   000046                     ___awdiv@dividend:
  1086                           	callstack 0
  1087   000046                     ___awmod@dividend:
  1088                           	callstack 0
  1089   000046                     fputc@c:
  1090                           	callstack 0
  1091   000046                     
  1092                           ; 1 bytes @ 0x0
  1093   000046                     	ds	1
  1094   000047                     SIPuts@value:
  1095                           	callstack 0
  1096                           
  1097                           ; 2 bytes @ 0x1
  1098   000047                     	ds	1
  1099   000048                     fputc@fp:
  1100                           	callstack 0
  1101   000048                     ___awdiv@divisor:
  1102                           	callstack 0
  1103   000048                     ___awmod@divisor:
  1104                           	callstack 0
  1105                           
  1106                           ; 2 bytes @ 0x2
  1107   000048                     	ds	1
  1108   000049                     ??_fputc:
  1109                           
  1110                           ; 1 bytes @ 0x3
  1111   000049                     	ds	1
  1112   00004A                     ___awdiv@counter:
  1113                           	callstack 0
  1114   00004A                     ___awmod@counter:
  1115                           	callstack 0
  1116   00004A                     
  1117                           ; 1 bytes @ 0x4
  1118   00004A                     	ds	1
  1119   00004B                     ___awdiv@sign:
  1120                           	callstack 0
  1121   00004B                     ___awmod@sign:
  1122                           	callstack 0
  1123                           
  1124                           ; 1 bytes @ 0x5
  1125   00004B                     	ds	1
  1126   00004C                     ?_abs:
  1127                           	callstack 0
  1128   00004C                     ___awdiv@quotient:
  1129                           	callstack 0
  1130   00004C                     abs@a:
  1131                           	callstack 0
  1132                           
  1133                           ; 2 bytes @ 0x6
  1134   00004C                     	ds	2
  1135   00004E                     ??_abs:
  1136                           
  1137                           ; 1 bytes @ 0x8
  1138   00004E                     	ds	2
  1139   000050                     vfpfcnvrt@fp:
  1140                           	callstack 0
  1141                           
  1142                           ; 1 bytes @ 0xA
  1143   000050                     	ds	1
  1144   000051                     vfpfcnvrt@fmt:
  1145                           	callstack 0
  1146                           
  1147                           ; 1 bytes @ 0xB
  1148   000051                     	ds	1
  1149   000052                     vfpfcnvrt@ap:
  1150                           	callstack 0
  1151                           
  1152                           ; 1 bytes @ 0xC
  1153   000052                     	ds	1
  1154   000053                     ??_vfpfcnvrt:
  1155                           
  1156                           ; 1 bytes @ 0xD
  1157   000053                     	ds	1
  1158   000054                     vfpfcnvrt@done:
  1159                           	callstack 0
  1160                           
  1161                           ; 1 bytes @ 0xE
  1162   000054                     	ds	1
  1163   000055                     vfpfcnvrt@cp:
  1164                           	callstack 0
  1165                           
  1166                           ; 1 bytes @ 0xF
  1167   000055                     	ds	1
  1168   000056                     vfpfcnvrt@convarg:
  1169                           	callstack 0
  1170                           
  1171                           ; 4 bytes @ 0x10
  1172   000056                     	ds	4
  1173   00005A                     vfpfcnvrt@c:
  1174                           	callstack 0
  1175                           
  1176                           ; 1 bytes @ 0x14
  1177   00005A                     	ds	1
  1178   00005B                     ?_vfprintf:
  1179                           	callstack 0
  1180   00005B                     vfprintf@fp:
  1181                           	callstack 0
  1182                           
  1183                           ; 1 bytes @ 0x15
  1184   00005B                     	ds	1
  1185   00005C                     vfprintf@fmt:
  1186                           	callstack 0
  1187                           
  1188                           ; 1 bytes @ 0x16
  1189   00005C                     	ds	1
  1190   00005D                     vfprintf@ap:
  1191                           	callstack 0
  1192                           
  1193                           ; 1 bytes @ 0x17
  1194   00005D                     	ds	1
  1195   00005E                     vfprintf@cfmt:
  1196                           	callstack 0
  1197   00005E                     
  1198                           ; 1 bytes @ 0x18
  1199   00005E                     	ds	1
  1200   00005F                     ?_sprintf:
  1201                           	callstack 0
  1202   00005F                     sprintf@s:
  1203                           	callstack 0
  1204                           
  1205                           ; 1 bytes @ 0x19
  1206   00005F                     	ds	1
  1207   000060                     sprintf@fmt:
  1208                           	callstack 0
  1209                           
  1210                           ; 1 bytes @ 0x1A
  1211   000060                     	ds	5
  1212   000065                     sprintf@ap:
  1213                           	callstack 0
  1214   000065                     
  1215                           ; 1 bytes @ 0x1F
  1216   000065                     	ds	1
  1217   000066                     sprintf@f:
  1218                           	callstack 0
  1219                           
  1220                           ; 11 bytes @ 0x20
  1221   000066                     	ds	11
  1222   000071                     ??_MotorADC:
  1223                           
  1224                           ; 1 bytes @ 0x2B
  1225   000071                     	ds	6
  1226   000077                     
  1227                           ; 1 bytes @ 0x31
  1228 ;;
  1229 ;;Main: autosize = 0, tempsize = 0, incstack = 0, save=0
  1230 ;;
  1231 ;; *************** function _main *****************
  1232 ;; Defined at:
  1233 ;;		line 102 in file "Main.c"
  1234 ;; Parameters:    Size  Location     Type
  1235 ;;		None
  1236 ;; Auto vars:     Size  Location     Type
  1237 ;;  valor           1    0        unsigned char 
  1238 ;; Return value:  Size  Location     Type
  1239 ;;                  1    wreg      void 
  1240 ;; Registers used:
  1241 ;;		wreg, fsr1l, fsr1h, fsr2l, fsr2h, status,2, status,0, tblptrl, tblptrh, tblptru, prodl, prodh, cstack
  1242 ;; Tracked objects:
  1243 ;;		On entry : 0/0
  1244 ;;		On exit  : 0/0
  1245 ;;		Unchanged: 0/0
  1246 ;; Data sizes:     COMRAM   BANK0   BANK1
  1247 ;;      Params:         0       0       0
  1248 ;;      Locals:         0       0       0
  1249 ;;      Temps:          0       0       0
  1250 ;;      Totals:         0       0       0
  1251 ;;Total ram usage:        0 bytes
  1252 ;; Hardware stack levels required when called: 8
  1253 ;; This function calls:
  1254 ;;		_MotorADC
  1255 ;;		_SIPuts
  1256 ;;		_TiInitTimer
  1257 ;;		_initADC
  1258 ;;		_initEUSART
  1259 ;;		_tiStart
  1260 ;; This function is called by:
  1261 ;;		Startup code after reset
  1262 ;; This function uses a non-reentrant model
  1263 ;;
  1264                           
  1265                           	psect	text0
  1266   000874                     __ptext0:
  1267                           	callstack 0
  1268   000874                     _main:
  1269                           	callstack 23
  1270                           
  1271                           ;Main.c: 103: 
  1272                           
  1273                           ;incstack = 0
  1274   000874  68C1               	setf	193,c	;volatile
  1275                           
  1276                           ;Main.c: 104: 
  1277   000876  6892               	setf	146,c	;volatile
  1278                           
  1279                           ;Main.c: 105:     unsigned char valor = 0;
  1280   000878  6895               	setf	149,c	;volatile
  1281                           
  1282                           ;Main.c: 106: 
  1283   00087A  0E70               	movlw	112
  1284   00087C  12D3               	iorwf	211,f,c	;volatile
  1285                           
  1286                           ;Main.c: 107:     while (1){
  1287   00087E  8C9B               	bsf	155,6,c	;volatile
  1288                           
  1289                           ;Main.c: 108:         MotorADC();
  1290   000880  EC83  F004         	call	_TiInitTimer	;wreg free
  1291                           
  1292                           ;Main.c: 109: 
  1293   000884  ECAB  F004         	call	_initEUSART	;wreg free
  1294                           
  1295                           ;Main.c: 110: 
  1296   000888  ECB6  F004         	call	_tiStart	;wreg free
  1297                           
  1298                           ;Main.c: 111: 
  1299   00088C  ECF3  F003         	call	_initADC	;wreg free
  1300                           
  1301                           ;Main.c: 113: 
  1302   000890  0E1F               	movlw	low STR_1
  1303   000892  6E47               	movwf	SIPuts@value^0,c
  1304   000894  5047               	movf	SIPuts@value^0,w,c
  1305   000896  A4D8               	btfss	status,2,c
  1306   000898  0E02               	movlw	high __psmallconst
  1307   00089A  6E48               	movwf	(SIPuts@value+1)^0,c
  1308   00089C  ECC5  F003         	call	_SIPuts	;wreg free
  1309   0008A0                     
  1310                           ;Main.c: 120:     ADCON1 = 0x0D;
  1311   0008A0  EC2C  F001         	call	_MotorADC	;wreg free
  1312   0008A4  D7FD               	goto	l1845
  1313   0008A6                     __end_of_main:
  1314                           	callstack 0
  1315                           
  1316 ;; *************** function _tiStart *****************
  1317 ;; Defined at:
  1318 ;;		line 48 in file "TTimer.c"
  1319 ;; Parameters:    Size  Location     Type
  1320 ;;		None
  1321 ;; Auto vars:     Size  Location     Type
  1322 ;;		None
  1323 ;; Return value:  Size  Location     Type
  1324 ;;                  1    wreg      void 
  1325 ;; Registers used:
  1326 ;;		wreg, status,2, cstack
  1327 ;; Tracked objects:
  1328 ;;		On entry : 0/0
  1329 ;;		On exit  : 0/0
  1330 ;;		Unchanged: 0/0
  1331 ;; Data sizes:     COMRAM   BANK0   BANK1
  1332 ;;      Params:         0       0       0
  1333 ;;      Locals:         0       0       0
  1334 ;;      Temps:          0       0       0
  1335 ;;      Totals:         0       0       0
  1336 ;;Total ram usage:        0 bytes
  1337 ;; Hardware stack levels used: 1
  1338 ;; Hardware stack levels required when called: 3
  1339 ;; This function calls:
  1340 ;;		_resetHasBeenTimer
  1341 ;; This function is called by:
  1342 ;;		_main
  1343 ;; This function uses a non-reentrant model
  1344 ;;
  1345                           
  1346                           	psect	text1
  1347   00096C                     __ptext1:
  1348                           	callstack 0
  1349   00096C                     _tiStart:
  1350                           	callstack 27
  1351                           
  1352                           ;TTimer.c: 49:     resetHasBeenTimer();
  1353                           
  1354                           ;incstack = 0
  1355   00096C  ECD9  F004         	call	_resetHasBeenTimer	;wreg free
  1356                           
  1357                           ;TTimer.c: 52:     TMR0 = 148;
  1358   000970  6AD7               	clrf	215,c	;volatile
  1359   000972  0E94               	movlw	148
  1360   000974  6ED6               	movwf	214,c	;volatile
  1361                           
  1362                           ;TTimer.c: 53:     newLATA = 0;
  1363   000976  6A3B               	clrf	_newLATA^0,c
  1364                           
  1365                           ;TTimer.c: 54:     T0CONbits.TMR0ON = 1;
  1366   000978  8ED5               	bsf	213,7,c	;volatile
  1367   00097A  0012               	return		;funcret
  1368   00097C                     __end_of_tiStart:
  1369                           	callstack 0
  1370                           
  1371 ;; *************** function _resetHasBeenTimer *****************
  1372 ;; Defined at:
  1373 ;;		line 44 in file "TTimer.c"
  1374 ;; Parameters:    Size  Location     Type
  1375 ;;		None
  1376 ;; Auto vars:     Size  Location     Type
  1377 ;;		None
  1378 ;; Return value:  Size  Location     Type
  1379 ;;                  1    wreg      void 
  1380 ;; Registers used:
  1381 ;;		None
  1382 ;; Tracked objects:
  1383 ;;		On entry : 0/0
  1384 ;;		On exit  : 0/0
  1385 ;;		Unchanged: 0/0
  1386 ;; Data sizes:     COMRAM   BANK0   BANK1
  1387 ;;      Params:         0       0       0
  1388 ;;      Locals:         0       0       0
  1389 ;;      Temps:          0       0       0
  1390 ;;      Totals:         0       0       0
  1391 ;;Total ram usage:        0 bytes
  1392 ;; Hardware stack levels used: 1
  1393 ;; Hardware stack levels required when called: 2
  1394 ;; This function calls:
  1395 ;;		Nothing
  1396 ;; This function is called by:
  1397 ;;		_tiStart
  1398 ;; This function uses a non-reentrant model
  1399 ;;
  1400                           
  1401                           	psect	text2
  1402   0009B2                     __ptext2:
  1403                           	callstack 0
  1404   0009B2                     _resetHasBeenTimer:
  1405                           	callstack 27
  1406                           
  1407                           ;TTimer.c: 45:     hasBeenTimer = 0;
  1408                           
  1409                           ;incstack = 0
  1410   0009B2  6A3C               	clrf	_hasBeenTimer^0,c
  1411   0009B4  0012               	return		;funcret
  1412   0009B6                     __end_of_resetHasBeenTimer:
  1413                           	callstack 0
  1414                           
  1415 ;; *************** function _initEUSART *****************
  1416 ;; Defined at:
  1417 ;;		line 5 in file "sio.c"
  1418 ;; Parameters:    Size  Location     Type
  1419 ;;		None
  1420 ;; Auto vars:     Size  Location     Type
  1421 ;;		None
  1422 ;; Return value:  Size  Location     Type
  1423 ;;                  1    wreg      void 
  1424 ;; Registers used:
  1425 ;;		wreg, status,2
  1426 ;; Tracked objects:
  1427 ;;		On entry : 0/0
  1428 ;;		On exit  : 0/0
  1429 ;;		Unchanged: 0/0
  1430 ;; Data sizes:     COMRAM   BANK0   BANK1
  1431 ;;      Params:         0       0       0
  1432 ;;      Locals:         0       0       0
  1433 ;;      Temps:          0       0       0
  1434 ;;      Totals:         0       0       0
  1435 ;;Total ram usage:        0 bytes
  1436 ;; Hardware stack levels used: 1
  1437 ;; Hardware stack levels required when called: 2
  1438 ;; This function calls:
  1439 ;;		Nothing
  1440 ;; This function is called by:
  1441 ;;		_main
  1442 ;; This function uses a non-reentrant model
  1443 ;;
  1444                           
  1445                           	psect	text3
  1446   000956                     __ptext3:
  1447                           	callstack 0
  1448   000956                     _initEUSART:
  1449                           	callstack 28
  1450                           
  1451                           ;sio.c: 6:     TRISCbits.TRISC6 = 0;
  1452                           
  1453                           ;incstack = 0
  1454   000956  9C94               	bcf	148,6,c	;volatile
  1455                           
  1456                           ;sio.c: 7:     TRISCbits.TRISC7 = 1;
  1457   000958  8E94               	bsf	148,7,c	;volatile
  1458                           
  1459                           ;sio.c: 8:     SPBRG = 51;
  1460   00095A  0E33               	movlw	51
  1461   00095C  6EAF               	movwf	175,c	;volatile
  1462                           
  1463                           ;sio.c: 11:     BAUDCONbits.BRG16 = 0;
  1464   00095E  96B8               	bcf	184,3,c	;volatile
  1465                           
  1466                           ;sio.c: 12:     TXSTAbits.SYNC = 0;
  1467   000960  98AC               	bcf	172,4,c	;volatile
  1468                           
  1469                           ;sio.c: 13:     TXSTAbits.BRGH = 0;
  1470   000962  94AC               	bcf	172,2,c	;volatile
  1471                           
  1472                           ;sio.c: 14:     TXSTAbits.TXEN = 1;
  1473   000964  8AAC               	bsf	172,5,c	;volatile
  1474                           
  1475                           ;sio.c: 15:     RCSTAbits.SPEN = 1;
  1476   000966  8EAB               	bsf	171,7,c	;volatile
  1477                           
  1478                           ;sio.c: 16:     RCSTAbits.CREN = 1;
  1479   000968  88AB               	bsf	171,4,c	;volatile
  1480   00096A  0012               	return		;funcret
  1481   00096C                     __end_of_initEUSART:
  1482                           	callstack 0
  1483                           
  1484 ;; *************** function _initADC *****************
  1485 ;; Defined at:
  1486 ;;		line 15 in file "adc.c"
  1487 ;; Parameters:    Size  Location     Type
  1488 ;;		None
  1489 ;; Auto vars:     Size  Location     Type
  1490 ;;		None
  1491 ;; Return value:  Size  Location     Type
  1492 ;;                  1    wreg      void 
  1493 ;; Registers used:
  1494 ;;		wreg, fsr1l, fsr1h, fsr2l, fsr2h, status,2, status,0, prodl, prodh
  1495 ;; Tracked objects:
  1496 ;;		On entry : 0/0
  1497 ;;		On exit  : 0/0
  1498 ;;		Unchanged: 0/0
  1499 ;; Data sizes:     COMRAM   BANK0   BANK1
  1500 ;;      Params:         0       0       0
  1501 ;;      Locals:         0       0       0
  1502 ;;      Temps:          0       0       0
  1503 ;;      Totals:         0       0       0
  1504 ;;Total ram usage:        0 bytes
  1505 ;; Hardware stack levels used: 1
  1506 ;; Hardware stack levels required when called: 2
  1507 ;; This function calls:
  1508 ;;		Nothing
  1509 ;; This function is called by:
  1510 ;;		_main
  1511 ;; This function uses a non-reentrant model
  1512 ;;
  1513                           
  1514                           	psect	text4
  1515   0007E6                     __ptext4:
  1516                           	callstack 0
  1517   0007E6                     _initADC:
  1518                           	callstack 28
  1519                           
  1520                           ;adc.c: 16:     ADCON1 = 0x0D;
  1521                           
  1522                           ;incstack = 0
  1523   0007E6  0E0D               	movlw	13
  1524   0007E8  6EC1               	movwf	193,c	;volatile
  1525                           
  1526                           ;adc.c: 17:     ADCON0 = 0x00;
  1527   0007EA  6AC2               	clrf	194,c	;volatile
  1528                           
  1529                           ;adc.c: 18:     ADCON2bits.ADCS = 0b110;
  1530   0007EC  50C0               	movf	192,w,c	;volatile
  1531   0007EE  0BF8               	andlw	-8
  1532   0007F0  0906               	iorlw	6
  1533   0007F2  6EC0               	movwf	192,c	;volatile
  1534                           
  1535                           ;adc.c: 19:     ADCON2bits.ADFM = 1;
  1536   0007F4  8EC0               	bsf	192,7,c	;volatile
  1537                           
  1538                           ;adc.c: 20:     ADCON2bits.ACQT = 0b111;
  1539   0007F6  0E38               	movlw	56
  1540   0007F8  12C0               	iorwf	192,f,c	;volatile
  1541                           
  1542                           ;adc.c: 21:     ADCON0bits.ADON = 1;
  1543   0007FA  80C2               	bsf	194,0,c	;volatile
  1544                           
  1545                           ;adc.c: 22:     ADCON1bits.VCFG0 = 0;
  1546   0007FC  98C1               	bcf	193,4,c	;volatile
  1547                           
  1548                           ;adc.c: 25:     for (sampleIndex=64 -1; sampleIndex!=0; sampleIndex--) samplesRA0[sample
      +                          Index]= samplesRA1[sampleIndex] = 0;
  1549   0007FE  0E3F               	movlw	63
  1550   000800  6E77               	movwf	_sampleIndex^0,c
  1551   000802  D017               	goto	l1785
  1552   000804                     l1781:
  1553   000804  5077               	movf	_sampleIndex^0,w,c
  1554   000806  0D02               	mullw	2
  1555   000808  0E00               	movlw	low _samplesRA1
  1556   00080A  24F3               	addwf	243,w,c
  1557   00080C  6ED9               	movwf	fsr2l,c
  1558   00080E  0E01               	movlw	high _samplesRA1
  1559   000810  20F4               	addwfc	prodh,w,c
  1560   000812  6EDA               	movwf	fsr2h,c
  1561   000814  6ADE               	clrf	postinc2,c
  1562   000816  6ADD               	clrf	postdec2,c
  1563   000818  5077               	movf	_sampleIndex^0,w,c
  1564   00081A  0D02               	mullw	2
  1565   00081C  0E80               	movlw	low _samplesRA0
  1566   00081E  24F3               	addwf	243,w,c
  1567   000820  6EE1               	movwf	fsr1l,c
  1568   000822  0E01               	movlw	high _samplesRA0
  1569   000824  20F4               	addwfc	prodh,w,c
  1570   000826  6EE2               	movwf	fsr1h,c
  1571   000828  CFDE FFE6          	movff	postinc2,postinc1
  1572   00082C  CFDD FFE5          	movff	postdec2,postdec1
  1573   000830  0677               	decf	_sampleIndex^0,f,c
  1574   000832                     l1785:
  1575   000832  5077               	movf	_sampleIndex^0,w,c
  1576   000834  B4D8               	btfsc	status,2,c
  1577   000836  0012               	return	
  1578   000838  D7E5               	goto	l1781
  1579   00083A                     __end_of_initADC:
  1580                           	callstack 0
  1581                           
  1582 ;; *************** function _TiInitTimer *****************
  1583 ;; Defined at:
  1584 ;;		line 62 in file "TTimer.c"
  1585 ;; Parameters:    Size  Location     Type
  1586 ;;		None
  1587 ;; Auto vars:     Size  Location     Type
  1588 ;;		None
  1589 ;; Return value:  Size  Location     Type
  1590 ;;                  1    wreg      void 
  1591 ;; Registers used:
  1592 ;;		wreg, status,2, cstack
  1593 ;; Tracked objects:
  1594 ;;		On entry : 0/0
  1595 ;;		On exit  : 0/0
  1596 ;;		Unchanged: 0/0
  1597 ;; Data sizes:     COMRAM   BANK0   BANK1
  1598 ;;      Params:         0       0       0
  1599 ;;      Locals:         0       0       0
  1600 ;;      Temps:          0       0       0
  1601 ;;      Totals:         0       0       0
  1602 ;;Total ram usage:        0 bytes
  1603 ;; Hardware stack levels used: 1
  1604 ;; Hardware stack levels required when called: 4
  1605 ;; This function calls:
  1606 ;;		_tiStop
  1607 ;; This function is called by:
  1608 ;;		_main
  1609 ;; This function uses a non-reentrant model
  1610 ;;
  1611                           
  1612                           	psect	text5
  1613   000906                     __ptext5:
  1614                           	callstack 0
  1615   000906                     _TiInitTimer:
  1616                           	callstack 26
  1617                           
  1618                           ;TTimer.c: 64:     T0CONbits.TMR0ON = 1;
  1619                           
  1620                           ;incstack = 0
  1621   000906  8ED5               	bsf	213,7,c	;volatile
  1622                           
  1623                           ;TTimer.c: 65:     T0CONbits.T08BIT = 1;
  1624   000908  8CD5               	bsf	213,6,c	;volatile
  1625                           
  1626                           ;TTimer.c: 66:     T0CONbits.PSA = 1;
  1627   00090A  86D5               	bsf	213,3,c	;volatile
  1628                           
  1629                           ;TTimer.c: 67:     T0CONbits.T0CS = 0;
  1630   00090C  9AD5               	bcf	213,5,c	;volatile
  1631                           
  1632                           ;TTimer.c: 75:     TMR0 = 148;
  1633   00090E  6AD7               	clrf	215,c	;volatile
  1634   000910  0E94               	movlw	148
  1635   000912  6ED6               	movwf	214,c	;volatile
  1636                           
  1637                           ;TTimer.c: 77:     INTCONbits.TMR0IF = 0;
  1638   000914  94F2               	bcf	242,2,c	;volatile
  1639                           
  1640                           ;TTimer.c: 78:     INTCONbits.TMR0IE = 1;
  1641   000916  8AF2               	bsf	242,5,c	;volatile
  1642                           
  1643                           ;TTimer.c: 79:     INTCONbits.PEIE = 1;
  1644   000918  8CF2               	bsf	242,6,c	;volatile
  1645                           
  1646                           ;TTimer.c: 80:     INTCONbits.GIE = 1;
  1647   00091A  8EF2               	bsf	242,7,c	;volatile
  1648                           
  1649                           ;TTimer.c: 81:     counter = 0;
  1650   00091C  6A35               	clrf	(_counter+1)^0,c
  1651   00091E  0E00               	movlw	0
  1652   000920  6E34               	movwf	_counter^0,c
  1653                           
  1654                           ;TTimer.c: 82:     internalCounter = 0;
  1655   000922  6A33               	clrf	(_internalCounter+1)^0,c
  1656   000924  0E00               	movlw	0
  1657   000926  6E32               	movwf	_internalCounter^0,c
  1658                           
  1659                           ;TTimer.c: 83:     tiStop();
  1660   000928  ECD1  F004         	call	_tiStop	;wreg free
  1661   00092C  0012               	return		;funcret
  1662   00092E                     __end_of_TiInitTimer:
  1663                           	callstack 0
  1664                           
  1665 ;; *************** function _tiStop *****************
  1666 ;; Defined at:
  1667 ;;		line 57 in file "TTimer.c"
  1668 ;; Parameters:    Size  Location     Type
  1669 ;;		None
  1670 ;; Auto vars:     Size  Location     Type
  1671 ;;		None
  1672 ;; Return value:  Size  Location     Type
  1673 ;;                  1    wreg      void 
  1674 ;; Registers used:
  1675 ;;		wreg, status,2, cstack
  1676 ;; Tracked objects:
  1677 ;;		On entry : 0/0
  1678 ;;		On exit  : 0/0
  1679 ;;		Unchanged: 0/0
  1680 ;; Data sizes:     COMRAM   BANK0   BANK1
  1681 ;;      Params:         0       0       0
  1682 ;;      Locals:         0       0       0
  1683 ;;      Temps:          0       0       0
  1684 ;;      Totals:         0       0       0
  1685 ;;Total ram usage:        0 bytes
  1686 ;; Hardware stack levels used: 1
  1687 ;; Hardware stack levels required when called: 3
  1688 ;; This function calls:
  1689 ;;		_resetTimerCounter
  1690 ;; This function is called by:
  1691 ;;		_TiInitTimer
  1692 ;; This function uses a non-reentrant model
  1693 ;;
  1694                           
  1695                           	psect	text6
  1696   0009A2                     __ptext6:
  1697                           	callstack 0
  1698   0009A2                     _tiStop:
  1699                           	callstack 26
  1700                           
  1701                           ;TTimer.c: 58:     T0CONbits.TMR0ON = 0;
  1702                           
  1703                           ;incstack = 0
  1704   0009A2  9ED5               	bcf	213,7,c	;volatile
  1705                           
  1706                           ;TTimer.c: 59:     resetTimerCounter();
  1707   0009A4  ECBE  F004         	call	_resetTimerCounter	;wreg free
  1708   0009A8  0012               	return		;funcret
  1709   0009AA                     __end_of_tiStop:
  1710                           	callstack 0
  1711                           
  1712 ;; *************** function _resetTimerCounter *****************
  1713 ;; Defined at:
  1714 ;;		line 35 in file "TTimer.c"
  1715 ;; Parameters:    Size  Location     Type
  1716 ;;		None
  1717 ;; Auto vars:     Size  Location     Type
  1718 ;;		None
  1719 ;; Return value:  Size  Location     Type
  1720 ;;                  1    wreg      void 
  1721 ;; Registers used:
  1722 ;;		wreg, status,2
  1723 ;; Tracked objects:
  1724 ;;		On entry : 0/0
  1725 ;;		On exit  : 0/0
  1726 ;;		Unchanged: 0/0
  1727 ;; Data sizes:     COMRAM   BANK0   BANK1
  1728 ;;      Params:         0       0       0
  1729 ;;      Locals:         0       0       0
  1730 ;;      Temps:          0       0       0
  1731 ;;      Totals:         0       0       0
  1732 ;;Total ram usage:        0 bytes
  1733 ;; Hardware stack levels used: 1
  1734 ;; Hardware stack levels required when called: 2
  1735 ;; This function calls:
  1736 ;;		Nothing
  1737 ;; This function is called by:
  1738 ;;		_tiStop
  1739 ;; This function uses a non-reentrant model
  1740 ;;
  1741                           
  1742                           	psect	text7
  1743   00097C                     __ptext7:
  1744                           	callstack 0
  1745   00097C                     _resetTimerCounter:
  1746                           	callstack 26
  1747                           
  1748                           ;TTimer.c: 36:     counter = 0;
  1749                           
  1750                           ;incstack = 0
  1751   00097C  6A35               	clrf	(_counter+1)^0,c
  1752   00097E  0E00               	movlw	0
  1753   000980  6E34               	movwf	_counter^0,c
  1754                           
  1755                           ;TTimer.c: 37:     internalCounter = 0;
  1756   000982  6A33               	clrf	(_internalCounter+1)^0,c
  1757   000984  0E00               	movlw	0
  1758   000986  6E32               	movwf	_internalCounter^0,c
  1759   000988  0012               	return		;funcret
  1760   00098A                     __end_of_resetTimerCounter:
  1761                           	callstack 0
  1762                           
  1763 ;; *************** function _MotorADC *****************
  1764 ;; Defined at:
  1765 ;;		line 36 in file "adc.c"
  1766 ;; Parameters:    Size  Location     Type
  1767 ;;		None
  1768 ;; Auto vars:     Size  Location     Type
  1769 ;;		None
  1770 ;; Return value:  Size  Location     Type
  1771 ;;                  1    wreg      void 
  1772 ;; Registers used:
  1773 ;;		wreg, fsr1l, fsr1h, fsr2l, fsr2h, status,2, status,0, tblptrl, tblptrh, tblptru, prodl, prodh, cstack
  1774 ;; Tracked objects:
  1775 ;;		On entry : 0/0
  1776 ;;		On exit  : 0/0
  1777 ;;		Unchanged: 0/0
  1778 ;; Data sizes:     COMRAM   BANK0   BANK1
  1779 ;;      Params:         0       0       0
  1780 ;;      Locals:         0       0       0
  1781 ;;      Temps:          6       0       0
  1782 ;;      Totals:         6       0       0
  1783 ;;Total ram usage:        6 bytes
  1784 ;; Hardware stack levels used: 1
  1785 ;; Hardware stack levels required when called: 7
  1786 ;; This function calls:
  1787 ;;		_SIOAvailableRX
  1788 ;;		_SIPuts
  1789 ;;		_sprintf
  1790 ;; This function is called by:
  1791 ;;		_main
  1792 ;; This function uses a non-reentrant model
  1793 ;;
  1794                           
  1795                           	psect	text8
  1796   000258                     __ptext8:
  1797                           	callstack 0
  1798   000258                     _MotorADC:
  1799                           	callstack 23
  1800                           
  1801                           ;adc.c: 37:     static char state=0;;adc.c: 39:     switch(state){
  1802                           
  1803                           ;incstack = 0
  1804   000258  D0FC               	goto	l1827
  1805   00025A                     l1789:
  1806                           
  1807                           ;adc.c: 41:             ADCON0bits.CHS =0;
  1808   00025A  0EC3               	movlw	-61
  1809   00025C  16C2               	andwf	194,f,c	;volatile
  1810                           
  1811                           ;adc.c: 42:             ADCON0bits.GO = 1;
  1812   00025E  82C2               	bsf	194,1,c	;volatile
  1813                           
  1814                           ;adc.c: 43:             state = 1;
  1815   000260  0E01               	movlw	1
  1816   000262  6E39               	movwf	MotorADC@state^0,c
  1817                           
  1818                           ;adc.c: 44:             break;
  1819   000264  0012               	return	
  1820   000266                     l351:
  1821                           
  1822                           ;adc.c: 46:             if (ADCON0bits.GO == 0){
  1823   000266  B2C2               	btfsc	194,1,c	;volatile
  1824   000268  0012               	return	
  1825                           
  1826                           ;adc.c: 47:                 averageRA0 -= samplesRA0[sampleIndex];
  1827   00026A  5077               	movf	_sampleIndex^0,w,c
  1828   00026C  0D02               	mullw	2
  1829   00026E  0E80               	movlw	low _samplesRA0
  1830   000270  24F3               	addwf	243,w,c
  1831   000272  6ED9               	movwf	fsr2l,c
  1832   000274  0E01               	movlw	high _samplesRA0
  1833   000276  20F4               	addwfc	prodh,w,c
  1834   000278  6EDA               	movwf	fsr2h,c
  1835   00027A  CFDE F071          	movff	postinc2,??_MotorADC
  1836   00027E  CFDD F072          	movff	postdec2,??_MotorADC+1
  1837   000282  C071  F073         	movff	??_MotorADC,??_MotorADC+2
  1838   000286  C072  F074         	movff	??_MotorADC+1,??_MotorADC+3
  1839   00028A  0E00               	movlw	0
  1840   00028C  BE74               	btfsc	(??_MotorADC+3)^0,7,c
  1841   00028E  0EFF               	movlw	255
  1842   000290  6E75               	movwf	(??_MotorADC+4)^0,c
  1843   000292  6E76               	movwf	(??_MotorADC+5)^0,c
  1844   000294  5073               	movf	(??_MotorADC+2)^0,w,c
  1845   000296  5E26               	subwf	_averageRA0^0,f,c
  1846   000298  5074               	movf	(??_MotorADC+3)^0,w,c
  1847   00029A  5A27               	subwfb	(_averageRA0+1)^0,f,c
  1848   00029C  5075               	movf	(??_MotorADC+4)^0,w,c
  1849   00029E  5A28               	subwfb	(_averageRA0+2)^0,f,c
  1850   0002A0  5076               	movf	(??_MotorADC+5)^0,w,c
  1851   0002A2  5A29               	subwfb	(_averageRA0+3)^0,f,c
  1852                           
  1853                           ;adc.c: 48:                 samplesRA0[sampleIndex] = (ADRESH << 8) | ADRESL;
  1854   0002A4  50C3               	movf	195,w,c	;volatile
  1855   0002A6  CFC4 F071          	movff	4036,??_MotorADC	;volatile
  1856   0002AA  6A72               	clrf	(??_MotorADC+1)^0,c
  1857   0002AC  C071  F072         	movff	??_MotorADC,??_MotorADC+1
  1858   0002B0  6A71               	clrf	??_MotorADC^0,c
  1859   0002B2  1271               	iorwf	??_MotorADC^0,f,c
  1860   0002B4  0E00               	movlw	0
  1861   0002B6  1272               	iorwf	(??_MotorADC+1)^0,f,c
  1862   0002B8  5077               	movf	_sampleIndex^0,w,c
  1863   0002BA  0D02               	mullw	2
  1864   0002BC  0E80               	movlw	low _samplesRA0
  1865   0002BE  24F3               	addwf	243,w,c
  1866   0002C0  6ED9               	movwf	fsr2l,c
  1867   0002C2  0E01               	movlw	high _samplesRA0
  1868   0002C4  20F4               	addwfc	prodh,w,c
  1869   0002C6  6EDA               	movwf	fsr2h,c
  1870   0002C8  C071  FFDE         	movff	??_MotorADC,postinc2
  1871   0002CC  C072  FFDD         	movff	??_MotorADC+1,postdec2
  1872                           
  1873                           ;adc.c: 49:                 averageRA0 += samplesRA0[sampleIndex];
  1874   0002D0  5077               	movf	_sampleIndex^0,w,c
  1875   0002D2  0D02               	mullw	2
  1876   0002D4  0E80               	movlw	low _samplesRA0
  1877   0002D6  24F3               	addwf	243,w,c
  1878   0002D8  6ED9               	movwf	fsr2l,c
  1879   0002DA  0E01               	movlw	high _samplesRA0
  1880   0002DC  20F4               	addwfc	prodh,w,c
  1881   0002DE  6EDA               	movwf	fsr2h,c
  1882   0002E0  CFDE F071          	movff	postinc2,??_MotorADC
  1883   0002E4  CFDD F072          	movff	postdec2,??_MotorADC+1
  1884   0002E8  C071  F073         	movff	??_MotorADC,??_MotorADC+2
  1885   0002EC  C072  F074         	movff	??_MotorADC+1,??_MotorADC+3
  1886   0002F0  0E00               	movlw	0
  1887   0002F2  BE74               	btfsc	(??_MotorADC+3)^0,7,c
  1888   0002F4  0EFF               	movlw	255
  1889   0002F6  6E75               	movwf	(??_MotorADC+4)^0,c
  1890   0002F8  6E76               	movwf	(??_MotorADC+5)^0,c
  1891   0002FA  5073               	movf	(??_MotorADC+2)^0,w,c
  1892   0002FC  2626               	addwf	_averageRA0^0,f,c
  1893   0002FE  5074               	movf	(??_MotorADC+3)^0,w,c
  1894   000300  2227               	addwfc	(_averageRA0+1)^0,f,c
  1895   000302  5075               	movf	(??_MotorADC+4)^0,w,c
  1896   000304  2228               	addwfc	(_averageRA0+2)^0,f,c
  1897   000306  5076               	movf	(??_MotorADC+5)^0,w,c
  1898   000308  2229               	addwfc	(_averageRA0+3)^0,f,c
  1899                           
  1900                           ;adc.c: 50:                 ADCON0bits.CHS =1;
  1901   00030A  50C2               	movf	194,w,c	;volatile
  1902   00030C  0BC3               	andlw	-61
  1903   00030E  0904               	iorlw	4
  1904   000310  6EC2               	movwf	194,c	;volatile
  1905                           
  1906                           ;adc.c: 51:                 ADCON0bits.GO = 1;
  1907   000312  82C2               	bsf	194,1,c	;volatile
  1908                           
  1909                           ;adc.c: 52:                 state = 2;
  1910   000314  0E02               	movlw	2
  1911   000316  6E39               	movwf	MotorADC@state^0,c
  1912   000318  0012               	return	
  1913   00031A                     l1801:
  1914                           
  1915                           ;adc.c: 57:             if (SIOAvailableRX()==1){
  1916   00031A  ECCB  F004         	call	_SIOAvailableRX	;wreg free
  1917   00031E  06E8               	decf	wreg,f,c
  1918   000320  B4D8               	btfsc	status,2,c
  1919                           
  1920                           ;adc.c: 58:                     temp=RCREG;
  1921   000322  CFAE F03A          	movff	4014,_temp	;volatile
  1922                           
  1923                           ;adc.c: 62:             if (ADCON0bits.GO == 0){
  1924                           
  1925                           ;adc.c: 61:             }
  1926   000326  B2C2               	btfsc	194,1,c	;volatile
  1927   000328  0012               	return	
  1928                           
  1929                           ;adc.c: 63:                 averageRA1 -= samplesRA1[sampleIndex];
  1930   00032A  5077               	movf	_sampleIndex^0,w,c
  1931   00032C  0D02               	mullw	2
  1932   00032E  0E00               	movlw	low _samplesRA1
  1933   000330  24F3               	addwf	243,w,c
  1934   000332  6ED9               	movwf	fsr2l,c
  1935   000334  0E01               	movlw	high _samplesRA1
  1936   000336  20F4               	addwfc	prodh,w,c
  1937   000338  6EDA               	movwf	fsr2h,c
  1938   00033A  CFDE F071          	movff	postinc2,??_MotorADC
  1939   00033E  CFDD F072          	movff	postdec2,??_MotorADC+1
  1940   000342  C071  F073         	movff	??_MotorADC,??_MotorADC+2
  1941   000346  C072  F074         	movff	??_MotorADC+1,??_MotorADC+3
  1942   00034A  0E00               	movlw	0
  1943   00034C  BE74               	btfsc	(??_MotorADC+3)^0,7,c
  1944   00034E  0EFF               	movlw	255
  1945   000350  6E75               	movwf	(??_MotorADC+4)^0,c
  1946   000352  6E76               	movwf	(??_MotorADC+5)^0,c
  1947   000354  5073               	movf	(??_MotorADC+2)^0,w,c
  1948   000356  5E22               	subwf	_averageRA1^0,f,c
  1949   000358  5074               	movf	(??_MotorADC+3)^0,w,c
  1950   00035A  5A23               	subwfb	(_averageRA1+1)^0,f,c
  1951   00035C  5075               	movf	(??_MotorADC+4)^0,w,c
  1952   00035E  5A24               	subwfb	(_averageRA1+2)^0,f,c
  1953   000360  5076               	movf	(??_MotorADC+5)^0,w,c
  1954   000362  5A25               	subwfb	(_averageRA1+3)^0,f,c
  1955                           
  1956                           ;adc.c: 64:                 samplesRA1[sampleIndex] = (ADRESH << 8) | ADRESL;
  1957   000364  50C3               	movf	195,w,c	;volatile
  1958   000366  CFC4 F071          	movff	4036,??_MotorADC	;volatile
  1959   00036A  6A72               	clrf	(??_MotorADC+1)^0,c
  1960   00036C  C071  F072         	movff	??_MotorADC,??_MotorADC+1
  1961   000370  6A71               	clrf	??_MotorADC^0,c
  1962   000372  1271               	iorwf	??_MotorADC^0,f,c
  1963   000374  0E00               	movlw	0
  1964   000376  1272               	iorwf	(??_MotorADC+1)^0,f,c
  1965   000378  5077               	movf	_sampleIndex^0,w,c
  1966   00037A  0D02               	mullw	2
  1967   00037C  0E00               	movlw	low _samplesRA1
  1968   00037E  24F3               	addwf	243,w,c
  1969   000380  6ED9               	movwf	fsr2l,c
  1970   000382  0E01               	movlw	high _samplesRA1
  1971   000384  20F4               	addwfc	prodh,w,c
  1972   000386  6EDA               	movwf	fsr2h,c
  1973   000388  C071  FFDE         	movff	??_MotorADC,postinc2
  1974   00038C  C072  FFDD         	movff	??_MotorADC+1,postdec2
  1975                           
  1976                           ;adc.c: 65:                 averageRA1 += samplesRA1[sampleIndex];
  1977   000390  5077               	movf	_sampleIndex^0,w,c
  1978   000392  0D02               	mullw	2
  1979   000394  0E00               	movlw	low _samplesRA1
  1980   000396  24F3               	addwf	243,w,c
  1981   000398  6ED9               	movwf	fsr2l,c
  1982   00039A  0E01               	movlw	high _samplesRA1
  1983   00039C  20F4               	addwfc	prodh,w,c
  1984   00039E  6EDA               	movwf	fsr2h,c
  1985   0003A0  CFDE F071          	movff	postinc2,??_MotorADC
  1986   0003A4  CFDD F072          	movff	postdec2,??_MotorADC+1
  1987   0003A8  C071  F073         	movff	??_MotorADC,??_MotorADC+2
  1988   0003AC  C072  F074         	movff	??_MotorADC+1,??_MotorADC+3
  1989   0003B0  0E00               	movlw	0
  1990   0003B2  BE74               	btfsc	(??_MotorADC+3)^0,7,c
  1991   0003B4  0EFF               	movlw	255
  1992   0003B6  6E75               	movwf	(??_MotorADC+4)^0,c
  1993   0003B8  6E76               	movwf	(??_MotorADC+5)^0,c
  1994   0003BA  5073               	movf	(??_MotorADC+2)^0,w,c
  1995   0003BC  2622               	addwf	_averageRA1^0,f,c
  1996   0003BE  5074               	movf	(??_MotorADC+3)^0,w,c
  1997   0003C0  2223               	addwfc	(_averageRA1+1)^0,f,c
  1998   0003C2  5075               	movf	(??_MotorADC+4)^0,w,c
  1999   0003C4  2224               	addwfc	(_averageRA1+2)^0,f,c
  2000   0003C6  5076               	movf	(??_MotorADC+5)^0,w,c
  2001   0003C8  2225               	addwfc	(_averageRA1+3)^0,f,c
  2002                           
  2003                           ;adc.c: 67:                 sampleIndex = (sampleIndex+1);
  2004   0003CA  2877               	incf	_sampleIndex^0,w,c
  2005   0003CC  6E77               	movwf	_sampleIndex^0,c
  2006                           
  2007                           ;adc.c: 68:                 if (sampleIndex == 64) sampleIndex = 0;
  2008   0003CE  0E40               	movlw	64
  2009   0003D0  1877               	xorwf	_sampleIndex^0,w,c
  2010   0003D2  B4D8               	btfsc	status,2,c
  2011   0003D4  6A77               	clrf	_sampleIndex^0,c
  2012                           
  2013                           ;adc.c: 69:                 if (sampleIndex == 0)state = 3;
  2014   0003D6  5077               	movf	_sampleIndex^0,w,c
  2015   0003D8  A4D8               	btfss	status,2,c
  2016   0003DA  D003               	goto	l357
  2017   0003DC  0E03               	movlw	3
  2018   0003DE  6E39               	movwf	MotorADC@state^0,c
  2019   0003E0  0012               	return	
  2020   0003E2                     l357:
  2021   0003E2  6A39               	clrf	MotorADC@state^0,c
  2022   0003E4  0012               	return	
  2023   0003E6                     l1817:
  2024                           
  2025                           ;adc.c: 75:             avgResultRA0 = (averageRA0 >> 6) & 0x03FF;
  2026   0003E6  C026  F071         	movff	_averageRA0,??_MotorADC
  2027   0003EA  C027  F072         	movff	_averageRA0+1,??_MotorADC+1
  2028   0003EE  0E06               	movlw	6
  2029   0003F0  6E73               	movwf	(??_MotorADC+2)^0,c
  2030   0003F2                     u895:
  2031   0003F2  3472               	rlcf	(??_MotorADC+1)^0,w,c
  2032   0003F4  3272               	rrcf	(??_MotorADC+1)^0,f,c
  2033   0003F6  3271               	rrcf	??_MotorADC^0,f,c
  2034   0003F8  2E73               	decfsz	(??_MotorADC+2)^0,f,c
  2035   0003FA  D7FB               	goto	u895
  2036   0003FC  0EFF               	movlw	255
  2037   0003FE  1471               	andwf	??_MotorADC^0,w,c
  2038   000400  6E2E               	movwf	_avgResultRA0^0,c
  2039   000402  0E03               	movlw	3
  2040   000404  1472               	andwf	(??_MotorADC+1)^0,w,c
  2041   000406  6E2F               	movwf	(_avgResultRA0+1)^0,c
  2042                           
  2043                           ;adc.c: 76:             avgResultRA1 = (averageRA1 >> 6) & 0x03FF;
  2044   000408  C022  F071         	movff	_averageRA1,??_MotorADC
  2045   00040C  C023  F072         	movff	_averageRA1+1,??_MotorADC+1
  2046   000410  0E06               	movlw	6
  2047   000412  6E73               	movwf	(??_MotorADC+2)^0,c
  2048   000414                     u905:
  2049   000414  3472               	rlcf	(??_MotorADC+1)^0,w,c
  2050   000416  3272               	rrcf	(??_MotorADC+1)^0,f,c
  2051   000418  3271               	rrcf	??_MotorADC^0,f,c
  2052   00041A  2E73               	decfsz	(??_MotorADC+2)^0,f,c
  2053   00041C  D7FB               	goto	u905
  2054   00041E  0EFF               	movlw	255
  2055   000420  1471               	andwf	??_MotorADC^0,w,c
  2056   000422  6E30               	movwf	_avgResultRA1^0,c
  2057   000424  0E03               	movlw	3
  2058   000426  1472               	andwf	(??_MotorADC+1)^0,w,c
  2059   000428  6E31               	movwf	(_avgResultRA1+1)^0,c
  2060                           
  2061                           ;adc.c: 77:             sprintf(toPrint2,"\r-> RA0: %d --- RA1: %d \n\0", avgResultRA0, 
      +                          avgResultRA1);
  2062   00042A  0E80               	movlw	low _toPrint2
  2063   00042C  6E5F               	movwf	sprintf@s^0,c
  2064   00042E  0E3B               	movlw	low STR_2
  2065   000430  6E60               	movwf	sprintf@fmt^0,c
  2066   000432  C02E  F061         	movff	_avgResultRA0,?_sprintf+2
  2067   000436  C02F  F062         	movff	_avgResultRA0+1,?_sprintf+3
  2068   00043A  C030  F063         	movff	_avgResultRA1,?_sprintf+4
  2069   00043E  C031  F064         	movff	_avgResultRA1+1,?_sprintf+5
  2070   000442  EC53  F004         	call	_sprintf	;wreg free
  2071                           
  2072                           ;adc.c: 78:             SIPuts(toPrint2);
  2073   000446  0E80               	movlw	low _toPrint2
  2074   000448  6E47               	movwf	SIPuts@value^0,c
  2075   00044A  6A48               	clrf	(SIPuts@value+1)^0,c
  2076   00044C  ECC5  F003         	call	_SIPuts	;wreg free
  2077   000450  D7C8               	goto	l357
  2078   000452                     l1827:
  2079   000452  5039               	movf	MotorADC@state^0,w,c
  2080                           
  2081                           ; Switch size 1, requested type "simple"
  2082                           ; Number of cases is 4, Range of values is 0 to 3
  2083                           ; switch strategies available:
  2084                           ; Name         Instructions Cycles
  2085                           ; simple_byte           13     7 (average)
  2086                           ;	Chosen strategy is simple_byte
  2087   000454  0A00               	xorlw	0	; case 0
  2088   000456  B4D8               	btfsc	status,2,c
  2089   000458  D700               	goto	l1789
  2090   00045A  0A01               	xorlw	1	; case 1
  2091   00045C  B4D8               	btfsc	status,2,c
  2092   00045E  D703               	goto	l351
  2093   000460  0A03               	xorlw	3	; case 2
  2094   000462  B4D8               	btfsc	status,2,c
  2095   000464  D75A               	goto	l1801
  2096   000466  0A01               	xorlw	1	; case 3
  2097   000468  A4D8               	btfss	status,2,c
  2098   00046A  0012               	return	
  2099   00046C  D7BC               	goto	l1817
  2100   00046E                     __end_of_MotorADC:
  2101                           	callstack 0
  2102                           
  2103 ;; *************** function _sprintf *****************
  2104 ;; Defined at:
  2105 ;;		line 9 in file "C:\Program Files\Microchip\xc8\v3.10\pic\sources\c99\common\nf_sprintf.c"
  2106 ;; Parameters:    Size  Location     Type
  2107 ;;  s               1   25[COMRAM] PTR unsigned char 
  2108 ;;		 -> toPrint2(32), 
  2109 ;;  fmt             1   26[COMRAM] PTR const unsigned char 
  2110 ;;		 -> STR_2(27), 
  2111 ;; Auto vars:     Size  Location     Type
  2112 ;;  f              11   32[COMRAM] struct _IO_FILE
  2113 ;;  ret             2    0        int 
  2114 ;;  ap              1   31[COMRAM] PTR void [1]
  2115 ;;		 -> ?_sprintf(2), 
  2116 ;; Return value:  Size  Location     Type
  2117 ;;                  2   25[COMRAM] int 
  2118 ;; Registers used:
  2119 ;;		wreg, fsr1l, fsr1h, fsr2l, fsr2h, status,2, status,0, tblptrl, tblptrh, tblptru, cstack
  2120 ;; Tracked objects:
  2121 ;;		On entry : 0/0
  2122 ;;		On exit  : 0/0
  2123 ;;		Unchanged: 0/0
  2124 ;; Data sizes:     COMRAM   BANK0   BANK1
  2125 ;;      Params:         6       0       0
  2126 ;;      Locals:        12       0       0
  2127 ;;      Temps:          0       0       0
  2128 ;;      Totals:        18       0       0
  2129 ;;Total ram usage:       18 bytes
  2130 ;; Hardware stack levels used: 1
  2131 ;; Hardware stack levels required when called: 6
  2132 ;; This function calls:
  2133 ;;		_vfprintf
  2134 ;; This function is called by:
  2135 ;;		_MotorADC
  2136 ;; This function uses a non-reentrant model
  2137 ;;
  2138                           
  2139                           	psect	text9
  2140   0008A6                     __ptext9:
  2141                           	callstack 0
  2142   0008A6                     _sprintf:
  2143                           	callstack 23
  2144                           
  2145                           ;incstack = 0
  2146   0008A6  0E61               	movlw	low (?_sprintf+2)
  2147   0008A8  6E65               	movwf	sprintf@ap^0,c
  2148   0008AA  C05F  F066         	movff	sprintf@s,sprintf@f
  2149   0008AE  6A69               	clrf	(sprintf@f+3)^0,c
  2150   0008B0  0E00               	movlw	0
  2151   0008B2  6E68               	movwf	(sprintf@f+2)^0,c
  2152   0008B4  6A70               	clrf	(sprintf@f+10)^0,c
  2153   0008B6  0E00               	movlw	0
  2154   0008B8  6E6F               	movwf	(sprintf@f+9)^0,c
  2155   0008BA  0E66               	movlw	low sprintf@f
  2156   0008BC  6E5B               	movwf	vfprintf@fp^0,c
  2157   0008BE  C060  F05C         	movff	sprintf@fmt,vfprintf@fmt
  2158   0008C2  0E65               	movlw	low sprintf@ap
  2159   0008C4  6E5D               	movwf	vfprintf@ap^0,c
  2160   0008C6  EC6B  F004         	call	_vfprintf	;wreg free
  2161   0008CA  505F               	movf	sprintf@s^0,w,c
  2162   0008CC  2468               	addwf	(sprintf@f+2)^0,w,c
  2163   0008CE  6ED9               	movwf	fsr2l,c
  2164   0008D0  6ADA               	clrf	fsr2h,c
  2165   0008D2  6ADF               	clrf	indf2,c
  2166   0008D4  0012               	return		;funcret
  2167   0008D6                     __end_of_sprintf:
  2168                           	callstack 0
  2169                           
  2170 ;; *************** function _vfprintf *****************
  2171 ;; Defined at:
  2172 ;;		line 1817 in file "C:\Program Files\Microchip\xc8\v3.10\pic\sources\c99\common\doprnt.c"
  2173 ;; Parameters:    Size  Location     Type
  2174 ;;  fp              1   21[COMRAM] PTR struct _IO_FILE
  2175 ;;		 -> sprintf@f(11), 
  2176 ;;  fmt             1   22[COMRAM] PTR const unsigned char 
  2177 ;;		 -> STR_2(27), 
  2178 ;;  ap              1   23[COMRAM] PTR PTR void 
  2179 ;;		 -> sprintf@ap(1), 
  2180 ;; Auto vars:     Size  Location     Type
  2181 ;;  cfmt            1   24[COMRAM] PTR unsigned char 
  2182 ;;		 -> STR_2(27), 
  2183 ;; Return value:  Size  Location     Type
  2184 ;;                  2   21[COMRAM] int 
  2185 ;; Registers used:
  2186 ;;		wreg, fsr1l, fsr1h, fsr2l, fsr2h, status,2, status,0, tblptrl, tblptrh, tblptru, cstack
  2187 ;; Tracked objects:
  2188 ;;		On entry : 0/0
  2189 ;;		On exit  : 0/0
  2190 ;;		Unchanged: 0/0
  2191 ;; Data sizes:     COMRAM   BANK0   BANK1
  2192 ;;      Params:         3       0       0
  2193 ;;      Locals:         1       0       0
  2194 ;;      Temps:          0       0       0
  2195 ;;      Totals:         4       0       0
  2196 ;;Total ram usage:        4 bytes
  2197 ;; Hardware stack levels used: 1
  2198 ;; Hardware stack levels required when called: 5
  2199 ;; This function calls:
  2200 ;;		_vfpfcnvrt
  2201 ;; This function is called by:
  2202 ;;		_sprintf
  2203 ;; This function uses a non-reentrant model
  2204 ;;
  2205                           
  2206                           	psect	text10
  2207   0008D6                     __ptext10:
  2208                           	callstack 0
  2209   0008D6                     _vfprintf:
  2210                           	callstack 23
  2211                           
  2212                           ;C:\Program Files\Microchip\xc8\v3.10\pic\sources\c99\common\doprnt.c: 1817: int vfprint
      +                          f(FILE *fp, const char *fmt, va_list ap);C:\Program Files\Microchip\xc8\v3.10\pic\source
      +                          s\c99\common\doprnt.c: 1818: {;C:\Program Files\Microchip\xc8\v3.10\pic\sources\c99\comm
      +                          on\doprnt.c: 1820:     char *cfmt;;C:\Program Files\Microchip\xc8\v3.10\pic\sources\c99\
      +                          common\doprnt.c: 1822:     cfmt = (char *)fmt;
  2213                           
  2214                           ;incstack = 0
  2215   0008D6  C05C  F05E         	movff	vfprintf@fmt,vfprintf@cfmt
  2216                           
  2217                           ;C:\Program Files\Microchip\xc8\v3.10\pic\sources\c99\common\doprnt.c: 1826:     while (
      +                          *cfmt) {
  2218   0008DA  D008               	goto	l1737
  2219   0008DC                     l1735:
  2220                           
  2221                           ;C:\Program Files\Microchip\xc8\v3.10\pic\sources\c99\common\doprnt.c: 1830:    vfpfcnvr
      +                          t(fp, &cfmt, ap);
  2222   0008DC  C05B  F050         	movff	vfprintf@fp,vfpfcnvrt@fp
  2223   0008E0  0E5E               	movlw	low vfprintf@cfmt
  2224   0008E2  6E51               	movwf	vfpfcnvrt@fmt^0,c
  2225   0008E4  C05D  F052         	movff	vfprintf@ap,vfpfcnvrt@ap
  2226   0008E8  EC37  F002         	call	_vfpfcnvrt	;wreg free
  2227   0008EC                     l1737:
  2228                           
  2229                           ;C:\Program Files\Microchip\xc8\v3.10\pic\sources\c99\common\doprnt.c: 1826:     while (
      +                          *cfmt) {
  2230   0008EC  C05E  FFF6         	movff	vfprintf@cfmt,tblptrl
  2231   0008F0                     	if	1	;There is more than 1 active tblptr byte
  2232   0008F0  0E02               	movlw	high __psmallconst
  2233   0008F2  6EF7               	movwf	tblptrh,c
  2234   0008F4                     	endif
  2235   0008F4                     	if	0	;tblptru may be non-zero
  2236   0008F4                     	endif
  2237   0008F4                     	if	0	;tblptru may be non-zero
  2238   0008F4                     	endif
  2239   0008F4  0008               	tblrd		*
  2240   0008F6  50F5               	movf	tablat,w,c
  2241   0008F8  0900               	iorlw	0
  2242   0008FA  A4D8               	btfss	status,2,c
  2243   0008FC  D7EF               	goto	l1735
  2244                           
  2245                           ;C:\Program Files\Microchip\xc8\v3.10\pic\sources\c99\common\doprnt.c: 1835:  return 0;
  2246   0008FE  6A5C               	clrf	(?_vfprintf+1)^0,c
  2247   000900  0E00               	movlw	0
  2248   000902  6E5B               	movwf	?_vfprintf^0,c
  2249   000904  0012               	return		;funcret
  2250   000906                     __end_of_vfprintf:
  2251                           	callstack 0
  2252                           
  2253 ;; *************** function _vfpfcnvrt *****************
  2254 ;; Defined at:
  2255 ;;		line 1177 in file "C:\Program Files\Microchip\xc8\v3.10\pic\sources\c99\common\doprnt.c"
  2256 ;; Parameters:    Size  Location     Type
  2257 ;;  fp              1   10[COMRAM] PTR struct _IO_FILE
  2258 ;;		 -> sprintf@f(11), 
  2259 ;;  fmt             1   11[COMRAM] PTR PTR unsigned char 
  2260 ;;		 -> vfprintf@cfmt(1), 
  2261 ;;  ap              1   12[COMRAM] PTR PTR void 
  2262 ;;		 -> sprintf@ap(1), 
  2263 ;; Auto vars:     Size  Location     Type
  2264 ;;  convarg         4   16[COMRAM] struct .
  2265 ;;  c               1   20[COMRAM] unsigned char 
  2266 ;;  cp              1   15[COMRAM] PTR unsigned char 
  2267 ;;		 -> STR_2(27), 
  2268 ;;  done            1   14[COMRAM] _Bool 
  2269 ;; Return value:  Size  Location     Type
  2270 ;;                  1    wreg      void 
  2271 ;; Registers used:
  2272 ;;		wreg, fsr1l, fsr1h, fsr2l, fsr2h, status,2, status,0, tblptrl, tblptrh, tblptru, cstack
  2273 ;; Tracked objects:
  2274 ;;		On entry : 0/0
  2275 ;;		On exit  : 0/0
  2276 ;;		Unchanged: 0/0
  2277 ;; Data sizes:     COMRAM   BANK0   BANK1
  2278 ;;      Params:         3       0       0
  2279 ;;      Locals:         7       0       0
  2280 ;;      Temps:          1       0       0
  2281 ;;      Totals:        11       0       0
  2282 ;;Total ram usage:       11 bytes
  2283 ;; Hardware stack levels used: 1
  2284 ;; Hardware stack levels required when called: 4
  2285 ;; This function calls:
  2286 ;;		___awdiv
  2287 ;;		___awmod
  2288 ;;		_abs
  2289 ;;		_fputc
  2290 ;; This function is called by:
  2291 ;;		_vfprintf
  2292 ;; This function uses a non-reentrant model
  2293 ;;
  2294                           
  2295                           	psect	text11
  2296   00046E                     __ptext11:
  2297                           	callstack 0
  2298   00046E                     _vfpfcnvrt:
  2299                           	callstack 23
  2300                           
  2301                           ;C:\Program Files\Microchip\xc8\v3.10\pic\sources\c99\common\doprnt.c: 1177: vfpfcnvrt(F
      +                          ILE *fp, char *fmt[], va_list ap);C:\Program Files\Microchip\xc8\v3.10\pic\sources\c99\c
      +                          ommon\doprnt.c: 1178: {;C:\Program Files\Microchip\xc8\v3.10\pic\sources\c99\common\dopr
      +                          nt.c: 1179:     char c, *cp;;C:\Program Files\Microchip\xc8\v3.10\pic\sources\c99\common
      +                          \doprnt.c: 1180:     _Bool done;;C:\Program Files\Microchip\xc8\v3.10\pic\sources\c99\co
      +                          mmon\doprnt.c: 1188:  } convarg;;C:\Program Files\Microchip\xc8\v3.10\pic\sources\c99\co
      +                          mmon\doprnt.c: 1201:     if ((*fmt)[0] == '%') {
  2302                           
  2303                           ;incstack = 0
  2304   00046E  5051               	movf	vfpfcnvrt@fmt^0,w,c
  2305   000470  6ED9               	movwf	fsr2l,c
  2306   000472  6ADA               	clrf	fsr2h,c
  2307   000474  CFDF FFF6          	movff	indf2,tblptrl
  2308   000478                     	if	1	;There is more than 1 active tblptr byte
  2309   000478  0E02               	movlw	high __psmallconst
  2310   00047A  6EF7               	movwf	tblptrh,c
  2311   00047C                     	endif
  2312   00047C                     	if	0	;tblptru may be non-zero
  2313   00047C                     	endif
  2314   00047C                     	if	0	;tblptru may be non-zero
  2315   00047C                     	endif
  2316   00047C  0008               	tblrd		*
  2317   00047E  50F5               	movf	tablat,w,c
  2318   000480  0A25               	xorlw	37
  2319   000482  A4D8               	btfss	status,2,c
  2320   000484  D08C               	goto	l1721
  2321                           
  2322                           ;C:\Program Files\Microchip\xc8\v3.10\pic\sources\c99\common\doprnt.c: 1202:         ++*
      +                          fmt;
  2323   000486  5051               	movf	vfpfcnvrt@fmt^0,w,c
  2324   000488  6ED9               	movwf	fsr2l,c
  2325   00048A  6ADA               	clrf	fsr2h,c
  2326   00048C  2ADF               	incf	indf2,f,c
  2327                           
  2328                           ;C:\Program Files\Microchip\xc8\v3.10\pic\sources\c99\common\doprnt.c: 1204:         fla
      +                          gs = width = 0;
  2329   00048E  6A2B               	clrf	(_width+1)^0,c
  2330   000490  0E00               	movlw	0
  2331   000492  6E2A               	movwf	_width^0,c
  2332   000494  C02A  F038         	movff	_width,_flags
  2333                           
  2334                           ;C:\Program Files\Microchip\xc8\v3.10\pic\sources\c99\common\doprnt.c: 1205:         pre
      +                          c = -1;
  2335   000498  682C               	setf	_prec^0,c
  2336   00049A  682D               	setf	(_prec+1)^0,c
  2337                           
  2338                           ;C:\Program Files\Microchip\xc8\v3.10\pic\sources\c99\common\doprnt.c: 1291:   cp = *fmt
      +                          ;
  2339   00049C  5051               	movf	vfpfcnvrt@fmt^0,w,c
  2340   00049E  6ED9               	movwf	fsr2l,c
  2341   0004A0  6ADA               	clrf	fsr2h,c
  2342   0004A2  50DF               	movf	indf2,w,c
  2343   0004A4  6E55               	movwf	vfpfcnvrt@cp^0,c
  2344                           
  2345                           ;C:\Program Files\Microchip\xc8\v3.10\pic\sources\c99\common\doprnt.c: 1361:   if (*cp =
      +                          = 'd' || *cp == 'i') {
  2346   0004A6  C055  FFF6         	movff	vfpfcnvrt@cp,tblptrl
  2347   0004AA                     	if	1	;There is more than 1 active tblptr byte
  2348   0004AA  0E02               	movlw	high __psmallconst
  2349   0004AC  6EF7               	movwf	tblptrh,c
  2350   0004AE                     	endif
  2351   0004AE                     	if	0	;tblptru may be non-zero
  2352   0004AE                     	endif
  2353   0004AE                     	if	0	;tblptru may be non-zero
  2354   0004AE                     	endif
  2355   0004AE  0008               	tblrd		*
  2356   0004B0  50F5               	movf	tablat,w,c
  2357   0004B2  0A64               	xorlw	100
  2358   0004B4  B4D8               	btfsc	status,2,c
  2359   0004B6  D009               	goto	u670
  2360   0004B8  C055  FFF6         	movff	vfpfcnvrt@cp,tblptrl
  2361   0004BC                     	if	1	;There is more than 1 active tblptr byte
  2362   0004BC  0E02               	movlw	high __psmallconst
  2363   0004BE  6EF7               	movwf	tblptrh,c
  2364   0004C0                     	endif
  2365   0004C0                     	if	0	;tblptru may be non-zero
  2366   0004C0                     	endif
  2367   0004C0                     	if	0	;tblptru may be non-zero
  2368   0004C0                     	endif
  2369   0004C0  0008               	tblrd		*
  2370   0004C2  50F5               	movf	tablat,w,c
  2371   0004C4  0A69               	xorlw	105
  2372   0004C6  A4D8               	btfss	status,2,c
  2373   0004C8  D065               	goto	l1717
  2374   0004CA                     u670:
  2375                           
  2376                           ;C:\Program Files\Microchip\xc8\v3.10\pic\sources\c99\common\doprnt.c: 1404:    convarg.
      +                          sint = (vfpf_sint_t)(int)(*(int *)__va_arg(*(int **)ap, (int)0));
  2377   0004CA  5052               	movf	vfpfcnvrt@ap^0,w,c
  2378   0004CC  6ED9               	movwf	fsr2l,c
  2379   0004CE  6ADA               	clrf	fsr2h,c
  2380   0004D0  0E02               	movlw	2
  2381   0004D2  26DF               	addwf	indf2,f,c
  2382   0004D4  5CDF               	subwf	indf2,w,c
  2383   0004D6  6ED9               	movwf	fsr2l,c
  2384   0004D8  6ADA               	clrf	fsr2h,c
  2385   0004DA  CFDE F056          	movff	postinc2,vfpfcnvrt@convarg
  2386   0004DE  CFDE F057          	movff	postinc2,vfpfcnvrt@convarg+1
  2387                           
  2388                           ;C:\Program Files\Microchip\xc8\v3.10\pic\sources\c99\common\doprnt.c: 1406:    *fmt = c
      +                          p+1;
  2389   0004E2  5051               	movf	vfpfcnvrt@fmt^0,w,c
  2390   0004E4  6ED9               	movwf	fsr2l,c
  2391   0004E6  6ADA               	clrf	fsr2h,c
  2392   0004E8  2855               	incf	vfpfcnvrt@cp^0,w,c
  2393   0004EA  6EDF               	movwf	indf2,c
  2394                           
  2395                           ;C:\Program Files\Microchip\xc8\v3.10\pic\sources\c99\common\doprnt.c: 1408:    c = size
      +                          of(dbuf);
  2396   0004EC  0E20               	movlw	32
  2397   0004EE  6E5A               	movwf	vfpfcnvrt@c^0,c
  2398                           
  2399                           ;C:\Program Files\Microchip\xc8\v3.10\pic\sources\c99\common\doprnt.c: 1409:    done = c
      +                          onvarg.sint < 0;
  2400   0004F0  AE57               	btfss	(vfpfcnvrt@convarg+1)^0,7,c
  2401   0004F2  D002               	goto	u680
  2402   0004F4  0E01               	movlw	1
  2403   0004F6  D001               	goto	u690
  2404   0004F8                     u680:
  2405   0004F8  0E00               	movlw	0
  2406   0004FA                     u690:
  2407   0004FA  6E54               	movwf	vfpfcnvrt@done^0,c
  2408   0004FC                     l1697:
  2409                           
  2410                           ;C:\Program Files\Microchip\xc8\v3.10\pic\sources\c99\common\doprnt.c: 1411:     dbuf[--
      +                          c] = abs(convarg.sint % 10) + '0';
  2411   0004FC  065A               	decf	vfpfcnvrt@c^0,f,c
  2412   0004FE  505A               	movf	vfpfcnvrt@c^0,w,c
  2413   000500  0F02               	addlw	low _dbuf
  2414   000502  6ED9               	movwf	fsr2l,c
  2415   000504  6ADA               	clrf	fsr2h,c
  2416   000506  C056  F046         	movff	vfpfcnvrt@convarg,___awmod@dividend
  2417   00050A  C057  F047         	movff	vfpfcnvrt@convarg+1,___awmod@dividend+1
  2418   00050E  6A49               	clrf	(___awmod@divisor+1)^0,c
  2419   000510  0E0A               	movlw	10
  2420   000512  6E48               	movwf	___awmod@divisor^0,c
  2421   000514  EC5F  F003         	call	___awmod	;wreg free
  2422   000518  C046  F04C         	movff	?___awmod,abs@a
  2423   00051C  C047  F04D         	movff	?___awmod+1,abs@a+1
  2424   000520  EC97  F004         	call	_abs	;wreg free
  2425   000524  504C               	movf	?_abs^0,w,c
  2426   000526  0F30               	addlw	48
  2427   000528  6EDF               	movwf	indf2,c
  2428                           
  2429                           ;C:\Program Files\Microchip\xc8\v3.10\pic\sources\c99\common\doprnt.c: 1412:     convarg
      +                          .sint /= 10;
  2430   00052A  C056  F046         	movff	vfpfcnvrt@convarg,___awdiv@dividend
  2431   00052E  C057  F047         	movff	vfpfcnvrt@convarg+1,___awdiv@dividend+1
  2432   000532  6A49               	clrf	(___awdiv@divisor+1)^0,c
  2433   000534  0E0A               	movlw	10
  2434   000536  6E48               	movwf	___awdiv@divisor^0,c
  2435   000538  EC1F  F003         	call	___awdiv	;wreg free
  2436   00053C  C046  F056         	movff	?___awdiv,vfpfcnvrt@convarg
  2437   000540  C047  F057         	movff	?___awdiv+1,vfpfcnvrt@convarg+1
  2438                           
  2439                           ;C:\Program Files\Microchip\xc8\v3.10\pic\sources\c99\common\doprnt.c: 1416:    } while 
      +                          (convarg.sint != 0 && c != 0);
  2440   000544  5056               	movf	vfpfcnvrt@convarg^0,w,c
  2441   000546  1057               	iorwf	(vfpfcnvrt@convarg+1)^0,w,c
  2442   000548  B4D8               	btfsc	status,2,c
  2443   00054A  D003               	goto	u710
  2444   00054C  505A               	movf	vfpfcnvrt@c^0,w,c
  2445   00054E  A4D8               	btfss	status,2,c
  2446   000550  D7D5               	goto	l1697
  2447   000552                     u710:
  2448                           
  2449                           ;C:\Program Files\Microchip\xc8\v3.10\pic\sources\c99\common\doprnt.c: 1417:    if (c !=
      +                           0 && done) {
  2450   000552  505A               	movf	vfpfcnvrt@c^0,w,c
  2451   000554  B4D8               	btfsc	status,2,c
  2452   000556  D019               	goto	l1715
  2453   000558  5054               	movf	vfpfcnvrt@done^0,w,c
  2454   00055A  B4D8               	btfsc	status,2,c
  2455   00055C  D016               	goto	l1715
  2456                           
  2457                           ;C:\Program Files\Microchip\xc8\v3.10\pic\sources\c99\common\doprnt.c: 1418:     dbuf[--
      +                          c] = '-';
  2458   00055E  065A               	decf	vfpfcnvrt@c^0,f,c
  2459   000560  505A               	movf	vfpfcnvrt@c^0,w,c
  2460   000562  0F02               	addlw	low _dbuf
  2461   000564  6ED9               	movwf	fsr2l,c
  2462   000566  6ADA               	clrf	fsr2h,c
  2463   000568  0E2D               	movlw	45
  2464   00056A  6EDF               	movwf	indf2,c
  2465   00056C  D00E               	goto	l1715
  2466   00056E                     l1711:
  2467                           
  2468                           ;C:\Program Files\Microchip\xc8\v3.10\pic\sources\c99\common\doprnt.c: 1424:     fputc(d
      +                          buf[c++], fp);
  2469   00056E  505A               	movf	vfpfcnvrt@c^0,w,c
  2470   000570  0F02               	addlw	low _dbuf
  2471   000572  6ED9               	movwf	fsr2l,c
  2472   000574  6ADA               	clrf	fsr2h,c
  2473   000576  50DF               	movf	indf2,w,c
  2474   000578  6E53               	movwf	??_vfpfcnvrt^0,c
  2475   00057A  5053               	movf	??_vfpfcnvrt^0,w,c
  2476   00057C  6E46               	movwf	fputc@c^0,c
  2477   00057E  6A47               	clrf	(fputc@c+1)^0,c
  2478   000580  C050  F048         	movff	vfpfcnvrt@fp,fputc@fp
  2479   000584  ECDF  F002         	call	_fputc	;wreg free
  2480   000588  2A5A               	incf	vfpfcnvrt@c^0,f,c
  2481   00058A                     l1715:
  2482                           
  2483                           ;C:\Program Files\Microchip\xc8\v3.10\pic\sources\c99\common\doprnt.c: 1423:    while (c
      +                           != sizeof(dbuf)) {
  2484   00058A  0E20               	movlw	32
  2485   00058C  185A               	xorwf	vfpfcnvrt@c^0,w,c
  2486   00058E  B4D8               	btfsc	status,2,c
  2487   000590  0012               	return	
  2488   000592  D7ED               	goto	l1711
  2489   000594                     l1717:
  2490                           
  2491                           ;C:\Program Files\Microchip\xc8\v3.10\pic\sources\c99\common\doprnt.c: 1806:         ++*
      +                          fmt;
  2492   000594  5051               	movf	vfpfcnvrt@fmt^0,w,c
  2493   000596  6ED9               	movwf	fsr2l,c
  2494   000598  6ADA               	clrf	fsr2h,c
  2495   00059A  2ADF               	incf	indf2,f,c
  2496   00059C  0012               	return	
  2497   00059E                     l1721:
  2498                           
  2499                           ;C:\Program Files\Microchip\xc8\v3.10\pic\sources\c99\common\doprnt.c: 1811:     fputc((
      +                          int)(*fmt)[0], fp);
  2500   00059E  5051               	movf	vfpfcnvrt@fmt^0,w,c
  2501   0005A0  6ED9               	movwf	fsr2l,c
  2502   0005A2  6ADA               	clrf	fsr2h,c
  2503   0005A4  CFDF FFF6          	movff	indf2,tblptrl
  2504   0005A8                     	if	1	;There is more than 1 active tblptr byte
  2505   0005A8  0E02               	movlw	high __psmallconst
  2506   0005AA  6EF7               	movwf	tblptrh,c
  2507   0005AC                     	endif
  2508   0005AC                     	if	0	;tblptru may be non-zero
  2509   0005AC                     	endif
  2510   0005AC                     	if	0	;tblptru may be non-zero
  2511   0005AC                     	endif
  2512   0005AC  0008               	tblrd		*
  2513   0005AE  50F5               	movf	tablat,w,c
  2514   0005B0  6E46               	movwf	fputc@c^0,c
  2515   0005B2  6A47               	clrf	(fputc@c+1)^0,c
  2516   0005B4  C050  F048         	movff	vfpfcnvrt@fp,fputc@fp
  2517   0005B8  ECDF  F002         	call	_fputc	;wreg free
  2518   0005BC  D7EB               	goto	l1717
  2519   0005BE                     __end_of_vfpfcnvrt:
  2520                           	callstack 0
  2521                           
  2522 ;; *************** function _fputc *****************
  2523 ;; Defined at:
  2524 ;;		line 8 in file "C:\Program Files\Microchip\xc8\v3.10\pic\sources\c99\common\nf_fputc.c"
  2525 ;; Parameters:    Size  Location     Type
  2526 ;;  c               2    0[COMRAM] int 
  2527 ;;  fp              1    2[COMRAM] PTR struct _IO_FILE
  2528 ;;		 -> sprintf@f(11), 
  2529 ;; Auto vars:     Size  Location     Type
  2530 ;;		None
  2531 ;; Return value:  Size  Location     Type
  2532 ;;                  2    0[COMRAM] int 
  2533 ;; Registers used:
  2534 ;;		wreg, fsr1l, fsr1h, fsr2l, fsr2h, status,2, status,0, cstack
  2535 ;; Tracked objects:
  2536 ;;		On entry : 0/0
  2537 ;;		On exit  : 0/0
  2538 ;;		Unchanged: 0/0
  2539 ;; Data sizes:     COMRAM   BANK0   BANK1
  2540 ;;      Params:         3       0       0
  2541 ;;      Locals:         0       0       0
  2542 ;;      Temps:          5       0       0
  2543 ;;      Totals:         8       0       0
  2544 ;;Total ram usage:        8 bytes
  2545 ;; Hardware stack levels used: 1
  2546 ;; Hardware stack levels required when called: 3
  2547 ;; This function calls:
  2548 ;;		_putch
  2549 ;; This function is called by:
  2550 ;;		_vfpfcnvrt
  2551 ;; This function uses a non-reentrant model
  2552 ;;
  2553                           
  2554                           	psect	text12
  2555   0005BE                     __ptext12:
  2556                           	callstack 0
  2557   0005BE                     _fputc:
  2558                           	callstack 23
  2559                           
  2560                           ;incstack = 0
  2561   0005BE  5048               	movf	fputc@fp^0,w,c
  2562   0005C0  B4D8               	btfsc	status,2,c
  2563   0005C2  D003               	goto	u610
  2564   0005C4  5048               	movf	fputc@fp^0,w,c
  2565   0005C6  A4D8               	btfss	status,2,c
  2566   0005C8  D004               	goto	l1665
  2567   0005CA                     u610:
  2568   0005CA  5046               	movf	fputc@c^0,w,c
  2569   0005CC  ECDB  F004         	call	_putch
  2570   0005D0  0012               	return	
  2571   0005D2                     l1665:
  2572   0005D2  5048               	movf	fputc@fp^0,w,c
  2573   0005D4  6ED9               	movwf	fsr2l,c
  2574   0005D6  6ADA               	clrf	fsr2h,c
  2575   0005D8  0E09               	movlw	9
  2576   0005DA  26D9               	addwf	fsr2l,f,c
  2577   0005DC  50DE               	movf	postinc2,w,c
  2578   0005DE  10DE               	iorwf	postinc2,w,c
  2579   0005E0  B4D8               	btfsc	status,2,c
  2580   0005E2  D014               	goto	u630
  2581   0005E4  5048               	movf	fputc@fp^0,w,c
  2582   0005E6  6ED9               	movwf	fsr2l,c
  2583   0005E8  6ADA               	clrf	fsr2h,c
  2584   0005EA  0E09               	movlw	9
  2585   0005EC  26D9               	addwf	fsr2l,f,c
  2586   0005EE  5048               	movf	fputc@fp^0,w,c
  2587   0005F0  6EE1               	movwf	fsr1l,c
  2588   0005F2  6AE2               	clrf	fsr1h,c
  2589   0005F4  0E02               	movlw	2
  2590   0005F6  26E1               	addwf	fsr1l,f,c
  2591   0005F8  50DE               	movf	postinc2,w,c
  2592   0005FA  5CE6               	subwf	postinc1,w,c
  2593   0005FC  50E6               	movf	postinc1,w,c
  2594   0005FE  0A80               	xorlw	128
  2595   000600  6E4D               	movwf	(??_fputc+4)^0,c
  2596   000602  50DE               	movf	postinc2,w,c
  2597   000604  0A80               	xorlw	128
  2598   000606  584D               	subwfb	(??_fputc+4)^0,w,c
  2599   000608  B0D8               	btfsc	status,0,c
  2600   00060A  0012               	return	
  2601   00060C                     u630:
  2602   00060C  5048               	movf	fputc@fp^0,w,c
  2603   00060E  6ED9               	movwf	fsr2l,c
  2604   000610  6ADA               	clrf	fsr2h,c
  2605   000612  0E02               	movlw	2
  2606   000614  26D9               	addwf	fsr2l,f,c
  2607   000616  50DF               	movf	indf2,w,c
  2608   000618  6E49               	movwf	??_fputc^0,c
  2609   00061A  5048               	movf	fputc@fp^0,w,c
  2610   00061C  6ED9               	movwf	fsr2l,c
  2611   00061E  6ADA               	clrf	fsr2h,c
  2612   000620  50DF               	movf	indf2,w,c
  2613   000622  2449               	addwf	??_fputc^0,w,c
  2614   000624  6ED9               	movwf	fsr2l,c
  2615   000626  6ADA               	clrf	fsr2h,c
  2616   000628  C046  FFDF         	movff	fputc@c,indf2
  2617   00062C  5048               	movf	fputc@fp^0,w,c
  2618   00062E  6ED9               	movwf	fsr2l,c
  2619   000630  6ADA               	clrf	fsr2h,c
  2620   000632  0E02               	movlw	2
  2621   000634  26D9               	addwf	fsr2l,f,c
  2622   000636  2ADE               	incf	postinc2,f,c
  2623   000638  0E00               	movlw	0
  2624   00063A  22DD               	addwfc	postdec2,f,c
  2625   00063C  0012               	return		;funcret
  2626   00063E                     __end_of_fputc:
  2627                           	callstack 0
  2628                           
  2629 ;; *************** function _putch *****************
  2630 ;; Defined at:
  2631 ;;		line 7 in file "C:\Program Files\Microchip\xc8\v3.10\pic\sources\c99\common\putch.c"
  2632 ;; Parameters:    Size  Location     Type
  2633 ;;  c               1    wreg     unsigned char 
  2634 ;; Auto vars:     Size  Location     Type
  2635 ;;  c               1    0[COMRAM] unsigned char 
  2636 ;; Return value:  Size  Location     Type
  2637 ;;                  1    wreg      void 
  2638 ;; Registers used:
  2639 ;;		wreg
  2640 ;; Tracked objects:
  2641 ;;		On entry : 0/0
  2642 ;;		On exit  : 0/0
  2643 ;;		Unchanged: 0/0
  2644 ;; Data sizes:     COMRAM   BANK0   BANK1
  2645 ;;      Params:         0       0       0
  2646 ;;      Locals:         0       0       0
  2647 ;;      Temps:          0       0       0
  2648 ;;      Totals:         0       0       0
  2649 ;;Total ram usage:        0 bytes
  2650 ;; Hardware stack levels used: 1
  2651 ;; Hardware stack levels required when called: 2
  2652 ;; This function calls:
  2653 ;;		Nothing
  2654 ;; This function is called by:
  2655 ;;		_fputc
  2656 ;; This function uses a non-reentrant model
  2657 ;;
  2658                           
  2659                           	psect	text13
  2660   0009B6                     __ptext13:
  2661                           	callstack 0
  2662   0009B6                     _putch:
  2663                           	callstack 23
  2664                           
  2665                           ;incstack = 0
  2666   0009B6  0012               	return		;funcret
  2667   0009B8                     __end_of_putch:
  2668                           	callstack 0
  2669                           
  2670 ;; *************** function _abs *****************
  2671 ;; Defined at:
  2672 ;;		line 1 in file "C:\Program Files\Microchip\xc8\v3.10\pic\sources\c99\common\abs.c"
  2673 ;; Parameters:    Size  Location     Type
  2674 ;;  a               2    6[COMRAM] int 
  2675 ;; Auto vars:     Size  Location     Type
  2676 ;;		None
  2677 ;; Return value:  Size  Location     Type
  2678 ;;                  2    6[COMRAM] int 
  2679 ;; Registers used:
  2680 ;;		wreg, status,2, status,0
  2681 ;; Tracked objects:
  2682 ;;		On entry : 0/0
  2683 ;;		On exit  : 0/0
  2684 ;;		Unchanged: 0/0
  2685 ;; Data sizes:     COMRAM   BANK0   BANK1
  2686 ;;      Params:         2       0       0
  2687 ;;      Locals:         0       0       0
  2688 ;;      Temps:          2       0       0
  2689 ;;      Totals:         4       0       0
  2690 ;;Total ram usage:        4 bytes
  2691 ;; Hardware stack levels used: 1
  2692 ;; Hardware stack levels required when called: 2
  2693 ;; This function calls:
  2694 ;;		Nothing
  2695 ;; This function is called by:
  2696 ;;		_vfpfcnvrt
  2697 ;; This function uses a non-reentrant model
  2698 ;;
  2699                           
  2700                           	psect	text14
  2701   00092E                     __ptext14:
  2702                           	callstack 0
  2703   00092E                     _abs:
  2704                           	callstack 24
  2705                           
  2706                           ;incstack = 0
  2707   00092E  BE4D               	btfsc	(abs@a+1)^0,7,c
  2708   000930  D005               	goto	l1199
  2709   000932  C04C  F04C         	movff	abs@a,?_abs
  2710   000936  C04D  F04D         	movff	abs@a+1,?_abs+1
  2711   00093A  0012               	return	
  2712   00093C                     l1199:
  2713   00093C  C04C  F04E         	movff	abs@a,??_abs
  2714   000940  C04D  F04F         	movff	abs@a+1,??_abs+1
  2715   000944  1E4E               	comf	??_abs^0,f,c
  2716   000946  1E4F               	comf	(??_abs+1)^0,f,c
  2717   000948  4A4E               	infsnz	??_abs^0,f,c
  2718   00094A  2A4F               	incf	(??_abs+1)^0,f,c
  2719   00094C  C04E  F04C         	movff	??_abs,?_abs
  2720   000950  C04F  F04D         	movff	??_abs+1,?_abs+1
  2721   000954  0012               	return		;funcret
  2722   000956                     __end_of_abs:
  2723                           	callstack 0
  2724                           
  2725 ;; *************** function ___awmod *****************
  2726 ;; Defined at:
  2727 ;;		line 7 in file "C:\Program Files\Microchip\xc8\v3.10\pic\sources\c99\common\awmod.c"
  2728 ;; Parameters:    Size  Location     Type
  2729 ;;  dividend        2    0[COMRAM] int 
  2730 ;;  divisor         2    2[COMRAM] int 
  2731 ;; Auto vars:     Size  Location     Type
  2732 ;;  sign            1    5[COMRAM] unsigned char 
  2733 ;;  counter         1    4[COMRAM] unsigned char 
  2734 ;; Return value:  Size  Location     Type
  2735 ;;                  2    0[COMRAM] int 
  2736 ;; Registers used:
  2737 ;;		wreg, status,2, status,0
  2738 ;; Tracked objects:
  2739 ;;		On entry : 0/0
  2740 ;;		On exit  : 0/0
  2741 ;;		Unchanged: 0/0
  2742 ;; Data sizes:     COMRAM   BANK0   BANK1
  2743 ;;      Params:         4       0       0
  2744 ;;      Locals:         2       0       0
  2745 ;;      Temps:          0       0       0
  2746 ;;      Totals:         6       0       0
  2747 ;;Total ram usage:        6 bytes
  2748 ;; Hardware stack levels used: 1
  2749 ;; Hardware stack levels required when called: 2
  2750 ;; This function calls:
  2751 ;;		Nothing
  2752 ;; This function is called by:
  2753 ;;		_vfpfcnvrt
  2754 ;; This function uses a non-reentrant model
  2755 ;;
  2756                           
  2757                           	psect	text15
  2758   0006BE                     __ptext15:
  2759                           	callstack 0
  2760   0006BE                     ___awmod:
  2761                           	callstack 24
  2762                           
  2763                           ;incstack = 0
  2764   0006BE  6A4B               	clrf	___awmod@sign^0,c
  2765   0006C0  AE47               	btfss	(___awmod@dividend+1)^0,7,c
  2766   0006C2  D006               	goto	l1631
  2767   0006C4  6C46               	negf	___awmod@dividend^0,c
  2768   0006C6  1E47               	comf	(___awmod@dividend+1)^0,f,c
  2769   0006C8  B0D8               	btfsc	status,0,c
  2770   0006CA  2A47               	incf	(___awmod@dividend+1)^0,f,c
  2771   0006CC  0E01               	movlw	1
  2772   0006CE  6E4B               	movwf	___awmod@sign^0,c
  2773   0006D0                     l1631:
  2774   0006D0  AE49               	btfss	(___awmod@divisor+1)^0,7,c
  2775   0006D2  D004               	goto	l1635
  2776   0006D4  6C48               	negf	___awmod@divisor^0,c
  2777   0006D6  1E49               	comf	(___awmod@divisor+1)^0,f,c
  2778   0006D8  B0D8               	btfsc	status,0,c
  2779   0006DA  2A49               	incf	(___awmod@divisor+1)^0,f,c
  2780   0006DC                     l1635:
  2781   0006DC  5048               	movf	___awmod@divisor^0,w,c
  2782   0006DE  1049               	iorwf	(___awmod@divisor+1)^0,w,c
  2783   0006E0  B4D8               	btfsc	status,2,c
  2784   0006E2  D018               	goto	l1651
  2785   0006E4  0E01               	movlw	1
  2786   0006E6  6E4A               	movwf	___awmod@counter^0,c
  2787   0006E8  D004               	goto	l1641
  2788   0006EA                     l1639:
  2789   0006EA  90D8               	bcf	status,0,c
  2790   0006EC  3648               	rlcf	___awmod@divisor^0,f,c
  2791   0006EE  3649               	rlcf	(___awmod@divisor+1)^0,f,c
  2792   0006F0  2A4A               	incf	___awmod@counter^0,f,c
  2793   0006F2                     l1641:
  2794   0006F2  AE49               	btfss	(___awmod@divisor+1)^0,7,c
  2795   0006F4  D7FA               	goto	l1639
  2796   0006F6                     u570:
  2797   0006F6  5048               	movf	___awmod@divisor^0,w,c
  2798   0006F8  5C46               	subwf	___awmod@dividend^0,w,c
  2799   0006FA  5049               	movf	(___awmod@divisor+1)^0,w,c
  2800   0006FC  5847               	subwfb	(___awmod@dividend+1)^0,w,c
  2801   0006FE  A0D8               	btfss	status,0,c
  2802   000700  D004               	goto	l1647
  2803   000702  5048               	movf	___awmod@divisor^0,w,c
  2804   000704  5E46               	subwf	___awmod@dividend^0,f,c
  2805   000706  5049               	movf	(___awmod@divisor+1)^0,w,c
  2806   000708  5A47               	subwfb	(___awmod@dividend+1)^0,f,c
  2807   00070A                     l1647:
  2808   00070A  90D8               	bcf	status,0,c
  2809   00070C  3249               	rrcf	(___awmod@divisor+1)^0,f,c
  2810   00070E  3248               	rrcf	___awmod@divisor^0,f,c
  2811   000710  2E4A               	decfsz	___awmod@counter^0,f,c
  2812   000712  D7F1               	goto	u570
  2813   000714                     l1651:
  2814   000714  504B               	movf	___awmod@sign^0,w,c
  2815   000716  B4D8               	btfsc	status,2,c
  2816   000718  D004               	goto	l1655
  2817   00071A  6C46               	negf	___awmod@dividend^0,c
  2818   00071C  1E47               	comf	(___awmod@dividend+1)^0,f,c
  2819   00071E  B0D8               	btfsc	status,0,c
  2820   000720  2A47               	incf	(___awmod@dividend+1)^0,f,c
  2821   000722                     l1655:
  2822   000722  C046  F046         	movff	___awmod@dividend,?___awmod
  2823   000726  C047  F047         	movff	___awmod@dividend+1,?___awmod+1
  2824   00072A  0012               	return		;funcret
  2825   00072C                     __end_of___awmod:
  2826                           	callstack 0
  2827                           
  2828 ;; *************** function ___awdiv *****************
  2829 ;; Defined at:
  2830 ;;		line 7 in file "C:\Program Files\Microchip\xc8\v3.10\pic\sources\c99\common\awdiv.c"
  2831 ;; Parameters:    Size  Location     Type
  2832 ;;  dividend        2    0[COMRAM] int 
  2833 ;;  divisor         2    2[COMRAM] int 
  2834 ;; Auto vars:     Size  Location     Type
  2835 ;;  quotient        2    6[COMRAM] int 
  2836 ;;  sign            1    5[COMRAM] unsigned char 
  2837 ;;  counter         1    4[COMRAM] unsigned char 
  2838 ;; Return value:  Size  Location     Type
  2839 ;;                  2    0[COMRAM] int 
  2840 ;; Registers used:
  2841 ;;		wreg, status,2, status,0
  2842 ;; Tracked objects:
  2843 ;;		On entry : 0/0
  2844 ;;		On exit  : 0/0
  2845 ;;		Unchanged: 0/0
  2846 ;; Data sizes:     COMRAM   BANK0   BANK1
  2847 ;;      Params:         4       0       0
  2848 ;;      Locals:         4       0       0
  2849 ;;      Temps:          0       0       0
  2850 ;;      Totals:         8       0       0
  2851 ;;Total ram usage:        8 bytes
  2852 ;; Hardware stack levels used: 1
  2853 ;; Hardware stack levels required when called: 2
  2854 ;; This function calls:
  2855 ;;		Nothing
  2856 ;; This function is called by:
  2857 ;;		_vfpfcnvrt
  2858 ;; This function uses a non-reentrant model
  2859 ;;
  2860                           
  2861                           	psect	text16
  2862   00063E                     __ptext16:
  2863                           	callstack 0
  2864   00063E                     ___awdiv:
  2865                           	callstack 24
  2866                           
  2867                           ;incstack = 0
  2868   00063E  6A4B               	clrf	___awdiv@sign^0,c
  2869   000640  AE49               	btfss	(___awdiv@divisor+1)^0,7,c
  2870   000642  D006               	goto	l1587
  2871   000644  6C48               	negf	___awdiv@divisor^0,c
  2872   000646  1E49               	comf	(___awdiv@divisor+1)^0,f,c
  2873   000648  B0D8               	btfsc	status,0,c
  2874   00064A  2A49               	incf	(___awdiv@divisor+1)^0,f,c
  2875   00064C  0E01               	movlw	1
  2876   00064E  6E4B               	movwf	___awdiv@sign^0,c
  2877   000650                     l1587:
  2878   000650  AE47               	btfss	(___awdiv@dividend+1)^0,7,c
  2879   000652  D006               	goto	l1593
  2880   000654  6C46               	negf	___awdiv@dividend^0,c
  2881   000656  1E47               	comf	(___awdiv@dividend+1)^0,f,c
  2882   000658  B0D8               	btfsc	status,0,c
  2883   00065A  2A47               	incf	(___awdiv@dividend+1)^0,f,c
  2884   00065C  0E01               	movlw	1
  2885   00065E  1A4B               	xorwf	___awdiv@sign^0,f,c
  2886   000660                     l1593:
  2887   000660  6A4D               	clrf	(___awdiv@quotient+1)^0,c
  2888   000662  0E00               	movlw	0
  2889   000664  6E4C               	movwf	___awdiv@quotient^0,c
  2890   000666  5048               	movf	___awdiv@divisor^0,w,c
  2891   000668  1049               	iorwf	(___awdiv@divisor+1)^0,w,c
  2892   00066A  B4D8               	btfsc	status,2,c
  2893   00066C  D01C               	goto	l1615
  2894   00066E  0E01               	movlw	1
  2895   000670  6E4A               	movwf	___awdiv@counter^0,c
  2896   000672  D004               	goto	l1601
  2897   000674                     l1599:
  2898   000674  90D8               	bcf	status,0,c
  2899   000676  3648               	rlcf	___awdiv@divisor^0,f,c
  2900   000678  3649               	rlcf	(___awdiv@divisor+1)^0,f,c
  2901   00067A  2A4A               	incf	___awdiv@counter^0,f,c
  2902   00067C                     l1601:
  2903   00067C  AE49               	btfss	(___awdiv@divisor+1)^0,7,c
  2904   00067E  D7FA               	goto	l1599
  2905   000680                     u510:
  2906   000680  90D8               	bcf	status,0,c
  2907   000682  364C               	rlcf	___awdiv@quotient^0,f,c
  2908   000684  364D               	rlcf	(___awdiv@quotient+1)^0,f,c
  2909   000686  5048               	movf	___awdiv@divisor^0,w,c
  2910   000688  5C46               	subwf	___awdiv@dividend^0,w,c
  2911   00068A  5049               	movf	(___awdiv@divisor+1)^0,w,c
  2912   00068C  5847               	subwfb	(___awdiv@dividend+1)^0,w,c
  2913   00068E  A0D8               	btfss	status,0,c
  2914   000690  D005               	goto	l1611
  2915   000692  5048               	movf	___awdiv@divisor^0,w,c
  2916   000694  5E46               	subwf	___awdiv@dividend^0,f,c
  2917   000696  5049               	movf	(___awdiv@divisor+1)^0,w,c
  2918   000698  5A47               	subwfb	(___awdiv@dividend+1)^0,f,c
  2919   00069A  804C               	bsf	___awdiv@quotient^0,0,c
  2920   00069C                     l1611:
  2921   00069C  90D8               	bcf	status,0,c
  2922   00069E  3249               	rrcf	(___awdiv@divisor+1)^0,f,c
  2923   0006A0  3248               	rrcf	___awdiv@divisor^0,f,c
  2924   0006A2  2E4A               	decfsz	___awdiv@counter^0,f,c
  2925   0006A4  D7ED               	goto	u510
  2926   0006A6                     l1615:
  2927   0006A6  504B               	movf	___awdiv@sign^0,w,c
  2928   0006A8  B4D8               	btfsc	status,2,c
  2929   0006AA  D004               	goto	l1619
  2930   0006AC  6C4C               	negf	___awdiv@quotient^0,c
  2931   0006AE  1E4D               	comf	(___awdiv@quotient+1)^0,f,c
  2932   0006B0  B0D8               	btfsc	status,0,c
  2933   0006B2  2A4D               	incf	(___awdiv@quotient+1)^0,f,c
  2934   0006B4                     l1619:
  2935   0006B4  C04C  F046         	movff	___awdiv@quotient,?___awdiv
  2936   0006B8  C04D  F047         	movff	___awdiv@quotient+1,?___awdiv+1
  2937   0006BC  0012               	return		;funcret
  2938   0006BE                     __end_of___awdiv:
  2939                           	callstack 0
  2940                           
  2941 ;; *************** function _SIPuts *****************
  2942 ;; Defined at:
  2943 ;;		line 35 in file "sio.c"
  2944 ;; Parameters:    Size  Location     Type
  2945 ;;  value           2    1[COMRAM] PTR unsigned char 
  2946 ;;		 -> toPrint2(32), STR_1(28), 
  2947 ;; Auto vars:     Size  Location     Type
  2948 ;;		None
  2949 ;; Return value:  Size  Location     Type
  2950 ;;                  1    wreg      void 
  2951 ;; Registers used:
  2952 ;;		wreg, fsr1l, fsr1h, status,2, status,0, tblptrl, tblptrh, tblptru, cstack
  2953 ;; Tracked objects:
  2954 ;;		On entry : 0/0
  2955 ;;		On exit  : 0/0
  2956 ;;		Unchanged: 0/0
  2957 ;; Data sizes:     COMRAM   BANK0   BANK1
  2958 ;;      Params:         2       0       0
  2959 ;;      Locals:         0       0       0
  2960 ;;      Temps:          0       0       0
  2961 ;;      Totals:         2       0       0
  2962 ;;Total ram usage:        2 bytes
  2963 ;; Hardware stack levels used: 1
  2964 ;; Hardware stack levels required when called: 2
  2965 ;; This function calls:
  2966 ;;		_SIOAvailableTX
  2967 ;;		_SIPutChar
  2968 ;; This function is called by:
  2969 ;;		_main
  2970 ;;		_MotorADC
  2971 ;; This function uses a non-reentrant model
  2972 ;;
  2973                           
  2974                           	psect	text17
  2975   00078A                     __ptext17:
  2976                           	callstack 0
  2977   00078A                     _SIPuts:
  2978                           	callstack 27
  2979                           
  2980                           ;sio.c: 36:     while (*value){
  2981                           
  2982                           ;incstack = 0
  2983   00078A  D019               	goto	l1751
  2984   00078C                     l1745:
  2985   00078C  ECC5  F004         	call	_SIOAvailableTX	;wreg free
  2986   000790  0900               	iorlw	0
  2987   000792  B4D8               	btfsc	status,2,c
  2988   000794  D7FB               	goto	l1745
  2989                           
  2990                           ;sio.c: 38:         SIPutChar(*value++);
  2991   000796  C047  FFF6         	movff	SIPuts@value,tblptrl
  2992   00079A  C048  FFF7         	movff	SIPuts@value+1,tblptrh
  2993   00079E  6AF8               	clrf	tblptru,c
  2994   0007A0  0E01               	movlw	(high __ramtop+-1)
  2995   0007A2  64F7               	cpfsgt	tblptrh,c
  2996   0007A4  D003               	bra	u787
  2997   0007A6  0008               	tblrd		*
  2998   0007A8  50F5               	movf	tablat,w,c
  2999   0007AA  D005               	bra	u780
  3000   0007AC                     u787:
  3001   0007AC  CFF6 FFE1          	movff	tblptrl,fsr1l
  3002   0007B0  CFF7 FFE2          	movff	tblptrh,fsr1h
  3003   0007B4  50E7               	movf	indf1,w,c
  3004   0007B6                     u780:
  3005   0007B6  ECD5  F004         	call	_SIPutChar
  3006   0007BA  4A47               	infsnz	SIPuts@value^0,f,c
  3007   0007BC  2A48               	incf	(SIPuts@value+1)^0,f,c
  3008   0007BE                     l1751:
  3009                           
  3010                           ;sio.c: 36:     while (*value){
  3011   0007BE  C047  FFF6         	movff	SIPuts@value,tblptrl
  3012   0007C2  C048  FFF7         	movff	SIPuts@value+1,tblptrh
  3013   0007C6  6AF8               	clrf	tblptru,c
  3014   0007C8  0E01               	movlw	(high __ramtop+-1)
  3015   0007CA  64F7               	cpfsgt	tblptrh,c
  3016   0007CC  D003               	bra	u797
  3017   0007CE  0008               	tblrd		*
  3018   0007D0  50F5               	movf	tablat,w,c
  3019   0007D2  D005               	bra	u790
  3020   0007D4                     u797:
  3021   0007D4  CFF6 FFE1          	movff	tblptrl,fsr1l
  3022   0007D8  CFF7 FFE2          	movff	tblptrh,fsr1h
  3023   0007DC  50E7               	movf	indf1,w,c
  3024   0007DE                     u790:
  3025   0007DE  0900               	iorlw	0
  3026   0007E0  B4D8               	btfsc	status,2,c
  3027   0007E2  0012               	return	
  3028   0007E4  D7D3               	goto	l1745
  3029   0007E6                     __end_of_SIPuts:
  3030                           	callstack 0
  3031                           
  3032 ;; *************** function _SIPutChar *****************
  3033 ;; Defined at:
  3034 ;;		line 27 in file "sio.c"
  3035 ;; Parameters:    Size  Location     Type
  3036 ;;  value           1    wreg     unsigned char 
  3037 ;; Auto vars:     Size  Location     Type
  3038 ;;  value           1    0[COMRAM] unsigned char 
  3039 ;; Return value:  Size  Location     Type
  3040 ;;                  1    wreg      void 
  3041 ;; Registers used:
  3042 ;;		wreg
  3043 ;; Tracked objects:
  3044 ;;		On entry : 0/0
  3045 ;;		On exit  : 0/0
  3046 ;;		Unchanged: 0/0
  3047 ;; Data sizes:     COMRAM   BANK0   BANK1
  3048 ;;      Params:         0       0       0
  3049 ;;      Locals:         1       0       0
  3050 ;;      Temps:          0       0       0
  3051 ;;      Totals:         1       0       0
  3052 ;;Total ram usage:        1 bytes
  3053 ;; Hardware stack levels used: 1
  3054 ;; Hardware stack levels required when called: 2
  3055 ;; This function calls:
  3056 ;;		Nothing
  3057 ;; This function is called by:
  3058 ;;		_SIPuts
  3059 ;; This function uses a non-reentrant model
  3060 ;;
  3061                           
  3062                           	psect	text18
  3063   0009AA                     __ptext18:
  3064                           	callstack 0
  3065   0009AA                     _SIPutChar:
  3066                           	callstack 26
  3067                           
  3068                           ;incstack = 0
  3069                           ;SIPutChar@value stored from wreg
  3070   0009AA  6E46               	movwf	SIPutChar@value^0,c
  3071                           
  3072                           ;sio.c: 28:     TXREG = value;
  3073   0009AC  C046  FFAD         	movff	SIPutChar@value,4013	;volatile
  3074   0009B0  0012               	return		;funcret
  3075   0009B2                     __end_of_SIPutChar:
  3076                           	callstack 0
  3077                           
  3078 ;; *************** function _SIOAvailableTX *****************
  3079 ;; Defined at:
  3080 ;;		line 23 in file "sio.c"
  3081 ;; Parameters:    Size  Location     Type
  3082 ;;		None
  3083 ;; Auto vars:     Size  Location     Type
  3084 ;;		None
  3085 ;; Return value:  Size  Location     Type
  3086 ;;                  1    wreg      unsigned char 
  3087 ;; Registers used:
  3088 ;;		wreg
  3089 ;; Tracked objects:
  3090 ;;		On entry : 0/0
  3091 ;;		On exit  : 0/0
  3092 ;;		Unchanged: 0/0
  3093 ;; Data sizes:     COMRAM   BANK0   BANK1
  3094 ;;      Params:         0       0       0
  3095 ;;      Locals:         0       0       0
  3096 ;;      Temps:          0       0       0
  3097 ;;      Totals:         0       0       0
  3098 ;;Total ram usage:        0 bytes
  3099 ;; Hardware stack levels used: 1
  3100 ;; Hardware stack levels required when called: 2
  3101 ;; This function calls:
  3102 ;;		Nothing
  3103 ;; This function is called by:
  3104 ;;		_SIPuts
  3105 ;; This function uses a non-reentrant model
  3106 ;;
  3107                           
  3108                           	psect	text19
  3109   00098A                     __ptext19:
  3110                           	callstack 0
  3111   00098A                     _SIOAvailableTX:
  3112                           	callstack 26
  3113                           
  3114                           ;sio.c: 24:     return TXSTAbits.TRMT;
  3115                           
  3116                           ;incstack = 0
  3117   00098A  A2AC               	btfss	172,1,c	;volatile
  3118   00098C  D002               	goto	u750
  3119   00098E  0E01               	movlw	1
  3120   000990  0012               	return	
  3121   000992                     u750:
  3122   000992  0E00               	movlw	0
  3123   000994  0012               	return		;funcret
  3124   000996                     __end_of_SIOAvailableTX:
  3125                           	callstack 0
  3126                           
  3127 ;; *************** function _SIOAvailableRX *****************
  3128 ;; Defined at:
  3129 ;;		line 19 in file "sio.c"
  3130 ;; Parameters:    Size  Location     Type
  3131 ;;		None
  3132 ;; Auto vars:     Size  Location     Type
  3133 ;;		None
  3134 ;; Return value:  Size  Location     Type
  3135 ;;                  1    wreg      unsigned char 
  3136 ;; Registers used:
  3137 ;;		wreg
  3138 ;; Tracked objects:
  3139 ;;		On entry : 0/0
  3140 ;;		On exit  : 0/0
  3141 ;;		Unchanged: 0/0
  3142 ;; Data sizes:     COMRAM   BANK0   BANK1
  3143 ;;      Params:         0       0       0
  3144 ;;      Locals:         0       0       0
  3145 ;;      Temps:          0       0       0
  3146 ;;      Totals:         0       0       0
  3147 ;;Total ram usage:        0 bytes
  3148 ;; Hardware stack levels used: 1
  3149 ;; Hardware stack levels required when called: 2
  3150 ;; This function calls:
  3151 ;;		Nothing
  3152 ;; This function is called by:
  3153 ;;		_MotorADC
  3154 ;; This function uses a non-reentrant model
  3155 ;;
  3156                           
  3157                           	psect	text20
  3158   000996                     __ptext20:
  3159                           	callstack 0
  3160   000996                     _SIOAvailableRX:
  3161                           	callstack 27
  3162                           
  3163                           ;sio.c: 20:     return PIR1bits.RCIF;
  3164                           
  3165                           ;incstack = 0
  3166   000996  AA9E               	btfss	158,5,c	;volatile
  3167   000998  D002               	goto	u810
  3168   00099A  0E01               	movlw	1
  3169   00099C  0012               	return	
  3170   00099E                     u810:
  3171   00099E  0E00               	movlw	0
  3172   0009A0  0012               	return		;funcret
  3173   0009A2                     __end_of_SIOAvailableRX:
  3174                           	callstack 0
  3175                           
  3176 ;; *************** function _RSI_High *****************
  3177 ;; Defined at:
  3178 ;;		line 25 in file "Main.c"
  3179 ;; Parameters:    Size  Location     Type
  3180 ;;		None
  3181 ;; Auto vars:     Size  Location     Type
  3182 ;;		None
  3183 ;; Return value:  Size  Location     Type
  3184 ;;                  1    wreg      void 
  3185 ;; Registers used:
  3186 ;;		wreg, status,2, status,0, cstack
  3187 ;; Tracked objects:
  3188 ;;		On entry : 0/0
  3189 ;;		On exit  : 0/0
  3190 ;;		Unchanged: 0/0
  3191 ;; Data sizes:     COMRAM   BANK0   BANK1
  3192 ;;      Params:         0       0       0
  3193 ;;      Locals:         0       0       0
  3194 ;;      Temps:          0       0       0
  3195 ;;      Totals:         0       0       0
  3196 ;;Total ram usage:        0 bytes
  3197 ;; Hardware stack levels used: 1
  3198 ;; Hardware stack levels required when called: 1
  3199 ;; This function calls:
  3200 ;;		__TiRSITimer
  3201 ;; This function is called by:
  3202 ;;		Interrupt level 2
  3203 ;; This function uses a non-reentrant model
  3204 ;;
  3205                           
  3206                           	psect	intcode
  3207   000008                     __pintcode:
  3208                           	callstack 0
  3209   000008                     _RSI_High:
  3210                           	callstack 23
  3211                           
  3212                           ;incstack = 0
  3213   000008  8201               	bsf	1,1,c	;set compiler interrupt flag (level 2)
  3214                           
  3215                           ;Main.c: 26:             break;
  3216   00000A  EC96  F003         	call	__TiRSITimer	;wreg free
  3217   00000E  9201               	bcf	1,1,c	;clear compiler interrupt flag (level 2)
  3218   000010  0011               	retfie		f
  3219   000012                     __end_of_RSI_High:
  3220                           	callstack 0
  3221                           
  3222 ;; *************** function __TiRSITimer *****************
  3223 ;; Defined at:
  3224 ;;		line 86 in file "TTimer.c"
  3225 ;; Parameters:    Size  Location     Type
  3226 ;;		None
  3227 ;; Auto vars:     Size  Location     Type
  3228 ;;		None
  3229 ;; Return value:  Size  Location     Type
  3230 ;;                  1    wreg      void 
  3231 ;; Registers used:
  3232 ;;		wreg, status,2, status,0
  3233 ;; Tracked objects:
  3234 ;;		On entry : 0/0
  3235 ;;		On exit  : 0/0
  3236 ;;		Unchanged: 0/0
  3237 ;; Data sizes:     COMRAM   BANK0   BANK1
  3238 ;;      Params:         0       0       0
  3239 ;;      Locals:         0       0       0
  3240 ;;      Temps:          0       0       0
  3241 ;;      Totals:         0       0       0
  3242 ;;Total ram usage:        0 bytes
  3243 ;; Hardware stack levels used: 1
  3244 ;; This function calls:
  3245 ;;		Nothing
  3246 ;; This function is called by:
  3247 ;;		_RSI_High
  3248 ;; This function uses a non-reentrant model
  3249 ;;
  3250                           
  3251                           	psect	text22
  3252   00072C                     __ptext22:
  3253                           	callstack 0
  3254   00072C                     __TiRSITimer:
  3255                           	callstack 23
  3256                           
  3257                           ;TTimer.c: 87:     INTCONbits.TMR0IF = 0;
  3258                           
  3259                           ;incstack = 0
  3260   00072C  94F2               	bcf	242,2,c	;volatile
  3261                           
  3262                           ;TTimer.c: 97:     TMR0 = 148;
  3263   00072E  6AD7               	clrf	215,c	;volatile
  3264   000730  0E94               	movlw	148
  3265   000732  6ED6               	movwf	214,c	;volatile
  3266                           
  3267                           ;TTimer.c: 98:     internalCounter++;
  3268   000734  4A32               	infsnz	_internalCounter^0,f,c
  3269   000736  2A33               	incf	(_internalCounter+1)^0,f,c
  3270                           
  3271                           ;TTimer.c: 99:     auxVar = 0;
  3272   000738  6A3D               	clrf	_auxVar^0,c
  3273                           
  3274                           ;TTimer.c: 100:     auxVar = ((bitData & 0x80) >> 6);
  3275   00073A  443F               	rlncf	_bitData^0,w,c
  3276   00073C  46E8               	rlncf	wreg,f,c
  3277   00073E  0B03               	andlw	3
  3278   000740  0B02               	andlw	2
  3279   000742  6E3D               	movwf	_auxVar^0,c
  3280                           
  3281                           ;TTimer.c: 101:     if (internalCounter > 2) {
  3282   000744  5033               	movf	(_internalCounter+1)^0,w,c
  3283   000746  E104               	bnz	i2u35_40
  3284   000748  0E03               	movlw	3
  3285   00074A  5C32               	subwf	_internalCounter^0,w,c
  3286   00074C  A0D8               	btfss	status,0,c
  3287   00074E  D009               	goto	i2l247
  3288   000750                     i2u35_40:
  3289                           
  3290                           ;TTimer.c: 102:         newLATA ^= 0x01;
  3291   000750  0E01               	movlw	1
  3292   000752  1A3B               	xorwf	_newLATA^0,f,c
  3293                           
  3294                           ;TTimer.c: 103:         if (!(internalCounter & 1)) {
  3295   000754  B032               	btfsc	_internalCounter^0,0,c
  3296   000756  D00E               	goto	i2l1447
  3297                           
  3298                           ;TTimer.c: 104:             trashwait = 23;
  3299   000758  0E17               	movlw	23
  3300   00075A  6E3E               	movwf	_trashwait^0,c
  3301                           
  3302                           ;TTimer.c: 105:             trashwait = 23;
  3303   00075C  0E17               	movlw	23
  3304   00075E  6E3E               	movwf	_trashwait^0,c
  3305   000760  D009               	goto	i2l1447
  3306   000762                     i2l247:
  3307                           
  3308                           ;TTimer.c: 109:         newLATA = auxVar;
  3309   000762  C03D  F03B         	movff	_auxVar,_newLATA
  3310                           
  3311                           ;TTimer.c: 110:         if (!(internalCounter & 1)) {
  3312   000766  B032               	btfsc	_internalCounter^0,0,c
  3313   000768  D005               	goto	i2l1447
  3314                           
  3315                           ;TTimer.c: 111:             trashwait = 23;
  3316   00076A  0E17               	movlw	23
  3317   00076C  6E3E               	movwf	_trashwait^0,c
  3318                           
  3319                           ;TTimer.c: 112:             trashwait = 23;
  3320   00076E  0E17               	movlw	23
  3321   000770  6E3E               	movwf	_trashwait^0,c
  3322                           
  3323                           ;TTimer.c: 113:             trashwait = 0;
  3324   000772  6A3E               	clrf	_trashwait^0,c
  3325   000774                     i2l1447:
  3326                           
  3327                           ;TTimer.c: 116:     if (internalCounter & 1) {
  3328   000774  A032               	btfss	_internalCounter^0,0,c
  3329   000776  D006               	goto	i2l1457
  3330                           
  3331                           ;TTimer.c: 117:         newLATA &= (0xFD);
  3332   000778  923B               	bcf	_newLATA^0,1,c
  3333                           
  3334                           ;TTimer.c: 118:         newLATA |= auxVar;
  3335   00077A  503D               	movf	_auxVar^0,w,c
  3336   00077C  123B               	iorwf	_newLATA^0,f,c
  3337                           
  3338                           ;TTimer.c: 119:         counter++;
  3339   00077E  4A34               	infsnz	_counter^0,f,c
  3340   000780  2A35               	incf	(_counter+1)^0,f,c
  3341                           
  3342                           ;TTimer.c: 120:         hasBeenTimer++;
  3343   000782  2A3C               	incf	_hasBeenTimer^0,f,c
  3344   000784                     i2l1457:
  3345                           
  3346                           ;TTimer.c: 122:     LATD = newLATA;
  3347   000784  C03B  FF8C         	movff	_newLATA,3980	;volatile
  3348   000788  0012               	return		;funcret
  3349   00078A                     __end_of__TiRSITimer:
  3350                           	callstack 0
  3351                           
  3352                           	psect	rparam
  3353   000001                     ___rparam_used  equ	1
  3354   000000                     ___param_bank   equ	0
  3355   000000                     __Lparam        equ	__Lrparam
  3356   000000                     __Hparam        equ	__Hrparam
  3357   000001                     btemp           set	1	;btemp
  3358   000001                     int$flags       set	1
  3359   000001                     btemp0          set	1
  3360   000002                     btemp1          set	2
  3361                           
  3362                           	psect	config
  3363                           
  3364                           ; Padding undefined space
  3365   300000                     	org	3145728
  3366   300000  FF                 	db	255
  3367                           
  3368                           ;Config register CONFIG1H @ 0x300001
  3369                           ;	Oscillator
  3370                           ;	OSC = INTIO2, Internal oscillator block, port function on RA6 and RA7
  3371                           ;	Fail-Safe Clock Monitor Enable bit
  3372                           ;	FCMEN = 0x0, unprogrammed default
  3373                           ;	Internal/External Oscillator Switchover bit
  3374                           ;	IESO = 0x0, unprogrammed default
  3375   300001                     	org	3145729
  3376   300001  08                 	db	8
  3377                           
  3378                           ;Config register CONFIG2L @ 0x300002
  3379                           ;	unspecified, using default values
  3380                           ;	Power-up Timer Enable bit
  3381                           ;	PWRT = 0x1, unprogrammed default
  3382                           ;	Brown-out Reset Enable bits
  3383                           ;	BOR = 0x3, unprogrammed default
  3384                           ;	Brown-out Reset Voltage bits
  3385                           ;	BORV = 0x3, unprogrammed default
  3386   300002                     	org	3145730
  3387   300002  1F                 	db	31
  3388                           
  3389                           ;Config register CONFIG2H @ 0x300003
  3390                           ;	Watchdog Timer Enable bit
  3391                           ;	WDT = OFF, WDT disabled (control is placed on the SWDTEN bit)
  3392                           ;	Watchdog Timer Postscale Select bits
  3393                           ;	WDTPS = 0xF, unprogrammed default
  3394   300003                     	org	3145731
  3395   300003  1E                 	db	30
  3396                           
  3397                           ; Padding undefined space
  3398   300004                     	org	3145732
  3399   300004  FF                 	db	255
  3400                           
  3401                           ;Config register CONFIG3H @ 0x300005
  3402                           ;	CCP2 MUX bit
  3403                           ;	CCP2MX = 0x1, unprogrammed default
  3404                           ;	PORTB A/D Enable bit
  3405                           ;	PBADEN = DIG, PORTB<4:0> pins are configured as digital I/O on Reset
  3406                           ;	Low-Power Timer1 Oscillator Enable bit
  3407                           ;	LPT1OSC = 0x0, unprogrammed default
  3408                           ;	MCLR Pin Enable bit
  3409                           ;	MCLRE = 0x1, unprogrammed default
  3410   300005                     	org	3145733
  3411   300005  81                 	db	129
  3412                           
  3413                           ;Config register CONFIG4L @ 0x300006
  3414                           ;	Stack Full/Underflow Reset Enable bit
  3415                           ;	STVREN = 0x1, unprogrammed default
  3416                           ;	Single-Supply ICSP Enable bit
  3417                           ;	LVP = OFF, Single-Supply ICSP disabled
  3418                           ;	Boot Block Size Select bits
  3419                           ;	BBSIZ = 0x0, unprogrammed default
  3420                           ;	Extended Instruction Set Enable bit
  3421                           ;	XINST = 0x0, unprogrammed default
  3422                           ;	Background Debugger Enable bit
  3423                           ;	DEBUG = 0x1, unprogrammed default
  3424   300006                     	org	3145734
  3425   300006  81                 	db	129
  3426                           
  3427                           ; Padding undefined space
  3428   300007                     	org	3145735
  3429   300007  FF                 	db	255
  3430                           tosu	equ	0xFFF
  3431                           tosh	equ	0xFFE
  3432                           tosl	equ	0xFFD
  3433                           stkptr	equ	0xFFC
  3434                           pclatu	equ	0xFFB
  3435                           pclath	equ	0xFFA
  3436                           pcl	equ	0xFF9
  3437                           tblptru	equ	0xFF8
  3438                           tblptrh	equ	0xFF7
  3439                           tblptrl	equ	0xFF6
  3440                           tablat	equ	0xFF5
  3441                           prodh	equ	0xFF4
  3442                           prodl	equ	0xFF3
  3443                           indf0	equ	0xFEF
  3444                           postinc0	equ	0xFEE
  3445                           postdec0	equ	0xFED
  3446                           preinc0	equ	0xFEC
  3447                           plusw0	equ	0xFEB
  3448                           fsr0h	equ	0xFEA
  3449                           fsr0l	equ	0xFE9
  3450                           wreg	equ	0xFE8
  3451                           indf1	equ	0xFE7
  3452                           postinc1	equ	0xFE6
  3453                           postdec1	equ	0xFE5
  3454                           preinc1	equ	0xFE4
  3455                           plusw1	equ	0xFE3
  3456                           fsr1h	equ	0xFE2
  3457                           fsr1l	equ	0xFE1
  3458                           bsr	equ	0xFE0
  3459                           indf2	equ	0xFDF
  3460                           postinc2	equ	0xFDE
  3461                           postdec2	equ	0xFDD
  3462                           preinc2	equ	0xFDC
  3463                           plusw2	equ	0xFDB
  3464                           fsr2h	equ	0xFDA
  3465                           fsr2l	equ	0xFD9
  3466                           status	equ	0xFD8

Data Sizes:
    Strings     55
    Constant    30
    Data        0
    BSS         356
    Persistent  1
    Stack       0

Auto Spaces:
    Space          Size  Autos    Used
    COMRAM          126     49     118
    BANK0           128      0      32
    BANK1           256      0     256

Pointer List with Targets:

    f$.$buffer	PTR unsigned char  size(1) Largest target is 32
		 -> toPrint2(BANK0[32]), 

    f$.$source	PTR const unsigned char  size(2) Largest target is 0

    fputc@fp	PTR struct _IO_FILE size(1) Largest target is 11
		 -> sprintf@f(COMRAM[11]), 

    fputc@fp$.$buffer	PTR unsigned char  size(1) Largest target is 32
		 -> toPrint2(BANK0[32]), 

    fputc@fp$.$source	PTR const unsigned char  size(2) Largest target is 0

    S1525$buffer	PTR unsigned char  size(1) Largest target is 32
		 -> toPrint2(BANK0[32]), 

    S1525$source	PTR const unsigned char  size(2) Largest target is 0

    SIPuts@value	PTR unsigned char  size(2) Largest target is 32
		 -> STR_1(CODE[28]), toPrint2(BANK0[32]), 

    sprintf@ap	PTR void [1] size(1) Largest target is 2
		 -> ?_sprintf(COMRAM[2]), 

    sprintf@fmt	PTR const unsigned char  size(1) Largest target is 27
		 -> STR_2(CODE[27]), 

    sprintf@s	PTR unsigned char  size(1) Largest target is 32
		 -> toPrint2(BANK0[32]), 

    vfpfcnvrt@ap	PTR PTR void  size(1) Largest target is 1
		 -> sprintf@ap(COMRAM[1]), 

    vfpfcnvrt@cp	PTR unsigned char  size(1) Largest target is 27
		 -> STR_2(CODE[27]), 

    vfpfcnvrt@fmt	PTR PTR unsigned char  size(1) Largest target is 1
		 -> vfprintf@cfmt(COMRAM[1]), 

    vfpfcnvrt@fp	PTR struct _IO_FILE size(1) Largest target is 11
		 -> sprintf@f(COMRAM[11]), 

    vfprintf@ap	PTR PTR void  size(1) Largest target is 1
		 -> sprintf@ap(COMRAM[1]), 

    vfprintf@cfmt	PTR unsigned char  size(1) Largest target is 27
		 -> STR_2(CODE[27]), 

    vfprintf@fmt	PTR const unsigned char  size(1) Largest target is 27
		 -> STR_2(CODE[27]), 

    vfprintf@fp	PTR struct _IO_FILE size(1) Largest target is 11
		 -> sprintf@f(COMRAM[11]), 


Critical Paths under _main in COMRAM

    _main->_MotorADC
    _MotorADC->_sprintf
    _sprintf->_vfprintf
    _vfprintf->_vfpfcnvrt
    _vfpfcnvrt->_abs
    _abs->___awmod
    _SIPuts->_SIPutChar

Critical Paths under _RSI_High in COMRAM

    None.

Critical Paths under _main in BANK0

    None.

Critical Paths under _RSI_High in BANK0

    None.

Critical Paths under _main in BANK1

    None.

Critical Paths under _RSI_High in BANK1

    None.

Call Graph Tables:

 ---------------------------------------------------------------------------------
 (Depth) Function   	        Calls       Base Space   Used Autos Params    Refs
 ---------------------------------------------------------------------------------
 (0) _main                                                 1     1      0    1913
                           _MotorADC
                             _SIPuts
                        _TiInitTimer
                            _initADC
                         _initEUSART
                            _tiStart
 ---------------------------------------------------------------------------------
 (1) _tiStart                                              0     0      0       0
                  _resetHasBeenTimer
 ---------------------------------------------------------------------------------
 (2) _resetHasBeenTimer                                    0     0      0       0
 ---------------------------------------------------------------------------------
 (1) _initEUSART                                           0     0      0       0
 ---------------------------------------------------------------------------------
 (1) _initADC                                              0     0      0       0
 ---------------------------------------------------------------------------------
 (1) _TiInitTimer                                          0     0      0       0
                             _tiStop
 ---------------------------------------------------------------------------------
 (2) _tiStop                                               0     0      0       0
                  _resetTimerCounter
 ---------------------------------------------------------------------------------
 (3) _resetTimerCounter                                    0     0      0       0
 ---------------------------------------------------------------------------------
 (1) _MotorADC                                             6     6      0    1836
                                             43 COMRAM     6     6      0
                     _SIOAvailableRX
                             _SIPuts
                            _sprintf
 ---------------------------------------------------------------------------------
 (2) _sprintf                                             20    14      6    1760
                                             25 COMRAM    18    12      6
                           _vfprintf
 ---------------------------------------------------------------------------------
 (3) _vfprintf                                             4     1      3    1559
                                             21 COMRAM     4     1      3
                          _vfpfcnvrt
 ---------------------------------------------------------------------------------
 (4) _vfpfcnvrt                                           11     8      3    1434
                                             10 COMRAM    11     8      3
                            ___awdiv
                            ___awmod
                                _abs
                              _fputc
 ---------------------------------------------------------------------------------
 (5) _fputc                                                8     5      3     230
                                              0 COMRAM     8     5      3
                              _putch
 ---------------------------------------------------------------------------------
 (6) _putch                                                1     1      0       0
 ---------------------------------------------------------------------------------
 (5) _abs                                                  4     2      2      67
                                              6 COMRAM     4     2      2
                            ___awmod (ARG)
 ---------------------------------------------------------------------------------
 (5) ___awmod                                              6     2      4     298
                                              0 COMRAM     6     2      4
 ---------------------------------------------------------------------------------
 (5) ___awdiv                                              8     4      4     302
                                              0 COMRAM     8     4      4
 ---------------------------------------------------------------------------------
 (2) _SIPuts                                               2     0      2      76
                                              1 COMRAM     2     0      2
                     _SIOAvailableTX
                          _SIPutChar
 ---------------------------------------------------------------------------------
 (3) _SIPutChar                                            1     1      0      29
                                              0 COMRAM     1     1      0
 ---------------------------------------------------------------------------------
 (3) _SIOAvailableTX                                       0     0      0       0
 ---------------------------------------------------------------------------------
 (2) _SIOAvailableRX                                       0     0      0       0
 ---------------------------------------------------------------------------------
 Estimated maximum stack depth 6
 ---------------------------------------------------------------------------------
 (Depth) Function   	        Calls       Base Space   Used Autos Params    Refs
 ---------------------------------------------------------------------------------
 (7) _RSI_High                                             0     0      0       0
                        __TiRSITimer
 ---------------------------------------------------------------------------------
 (8) __TiRSITimer                                          0     0      0       0
 ---------------------------------------------------------------------------------
 Estimated maximum stack depth 8
 ---------------------------------------------------------------------------------

 Call Graph Graphs:

 _main (ROOT)
   _MotorADC
     _SIOAvailableRX
     _SIPuts
       _SIOAvailableTX
       _SIPutChar
     _sprintf
       _vfprintf
         _vfpfcnvrt
           ___awdiv
           ___awmod
           _abs
             ___awmod (ARG)
           _fputc
             _putch
   _SIPuts
   _TiInitTimer
     _tiStop
       _resetTimerCounter
   _initADC
   _initEUSART
   _tiStart
     _resetHasBeenTimer

 _RSI_High (ROOT)
   __TiRSITimer

Address spaces:
Name               Size   Autos  Total    Usage
BIGRAM             511      0       0      0.0%
BITBANK1           256      0       0      0.0%
BANK1              256      0     256    100.0%
BITBANK0           128      0       0      0.0%
BANK0              128      0      32     25.0%
BITCOMRAM          126      0       0      0.0%
COMRAM             126     49     118     93.7%
BITBIGSFRh          82      0       0      0.0%
BITBIGSFRlh         35      0       0      0.0%
BITBIGSFRll          9      0       0      0.0%
STACK                0      0       0      0.0%
DATA                 0      0     406      0.0%


Microchip Technology PIC18 Macro Assembler V3.10 build 20250813170317 
Symbol Table                                                                                   Thu Jan 15 14:48:44 2026

             ___awdiv@sign 004B                        l351 0266                        l357 03E2  
                      u510 0680                        u610 05CA                        u630 060C  
                      u710 0552                        u810 099E                        u570 06F6  
                      u750 0992                        u670 04CA                        u680 04F8  
                      u905 0414                        u690 04FA                        u780 07B6  
                      u790 07DE                        u787 07AC                        u797 07D4  
                      u895 03F2                        _abs 092E               ___awmod@sign 004B  
                      prod 0FF3                        wreg 0FE8                       ?_abs 004C  
                     l1601 067C                       l1611 069C                       l1615 06A6  
                     l1631 06D0                       l1199 093C                       l1711 056E  
                     l1641 06F2                       l1721 059E                       l1801 031A  
                     l1619 06B4                       l1651 0714                       l1635 06DC  
                     l1715 058A                       l1717 0594                       l1751 07BE  
                     l1655 0722                       l1647 070A                       l1639 06EA  
                     l1735 08DC                       l1745 078C                       l1593 0660  
                     l1665 05D2                       l1737 08EC                       l1817 03E6  
                     l1587 0650                       l1827 0452                       l1781 0804  
                     l1845 08A0                       l1599 0674                       l1697 04FC  
                     l1785 0832                       l1789 025A                       STR_1 021F  
                     STR_2 023B                       _LATD 0F8C                       _TMR0 0FD6  
                     abs@a 004C                       _data 0040                       _dbuf 0002  
                     _main 0874                       _prec 002C                       _temp 003A  
                     fsr1h 0FE2                       fsr2h 0FDA                       indf1 0FE7  
                     indf2 0FDF                       fsr1l 0FE1                       fsr2l 0FD9  
                     btemp 0001                       prodl 0FF3                       start 0012  
             ___param_bank 0000                      ??_abs 004E                      ?_main 0046  
          __end_of___awdiv 06BE            __end_of___awmod 072C              ??_TiInitTimer 0046  
          ___awdiv@divisor 0048                      i2l247 0762            ___awdiv@counter 004A  
                    _RCREG 0FAE               vfpfcnvrt@fmt 0051                      _SPBRG 0FAF  
                    _TRISA 0F92                      _TRISD 0F95                      _TXREG 0FAD  
          __end_of_initADC 083A                      _flags 0038                      _fputc 05BE  
                    btemp0 0001                      btemp1 0002                      _width 002A  
                    _putch 09B6            __end_of_tiStart 097C           __end_of_RSI_High 0012  
                    tablat 0FF5                      status 0FD8            __end_of_sprintf 08D6  
            ??__TiRSITimer 0046             SIPutChar@value 0046          _resetTimerCounter 097C  
          __initialization 083A               __end_of_main 08A6         ?_resetTimerCounter 0046  
                   ??_main 0077              __activetblptr 0002        ??_resetTimerCounter 0046  
         __end_of_MotorADC 046E                     _ADCON0 0FC2                     _ADCON1 0FC1  
      __end_of_TiInitTimer 092E                     ?_fputc 0046                     _ADRESH 0FC4  
                   _ADRESL 0FC3           ___awdiv@dividend 0046                     ?_putch 0046  
                   i2l1447 0774                     i2l1457 0784              vfpfcnvrt@done 0054  
                   _SIPuts 078A  __end_of_resetTimerCounter 098A               vfprintf@cfmt 005E  
                ??___awdiv 004A                  ??___awmod 004A                     _auxVar 003D  
                   _oldAdc 0043        __end_of__TiRSITimer 078A                     clear_0 0842  
                   clear_1 0854                     clear_2 0860                     _parity 0036  
         ___awdiv@quotient 004C                     _tiStop 09A2            ___awmod@divisor 0048  
                   isa$std 0001            ___awmod@counter 004A                  ??_initADC 0046  
                   fputc@c 0046          __end_of_SIPutChar 09B2                  ??_tiStart 0046  
             __mediumconst 0200                     tblptrh 0FF7                     tblptrl 0FF6  
                   tblptru 0FF8                     putch@c 0046           __end_of_vfprintf 0906  
                ??_sprintf 0065                 __accesstop 0080    __end_of__initialization 0866  
            ___rparam_used 0001             __pcstackCOMRAM 0046              __end_of_fputc 063E  
             _hasBeenTimer 003C              __end_of_putch 09B8                  ?_RSI_High 0046  
              _TiInitTimer 0906              MotorADC@state 0039                    ??_fputc 0049  
                  ??_putch 0046                 __pbssBANK0 0080                 __pbssBANK1 0100  
               __pnvCOMRAM 0077                    ?_SIPuts 0047                __TiRSITimer 072C  
                ?_MotorADC 0046                    ?_tiStop 0046                 ??_RSI_High 0046  
               _averageRA0 0026                 _averageRA1 0022                    i2u35_40 0750  
             _avgResultRA0 002E               _avgResultRA1 0030                 _initEUSART 0956  
                  __Hparam 0000                 ??_MotorADC 0071                    __Lparam 0000  
                  ___awdiv 063E                    ___awmod 06BE                  ?_vfprintf 005B  
             __psmallconst 0200                    _address 0041                    _bitData 003F  
                  __pcinit 083A                    __ramtop 0200                    __ptext0 0874  
                  __ptext1 096C                    __ptext2 09B2                    __ptext3 0956  
                  __ptext4 07E6                    __ptext5 0906                    __ptext6 09A2  
                  __ptext7 097C                    __ptext8 0258                    __ptext9 08A6  
                _T0CONbits 0FD5                    _newLATA 003B                    _initADC 07E6  
                  _counter 0034           ___awmod@dividend 0046                    _tiStart 096C  
                  _sprintf 08A6       end_of_initialization 0866                 _samplesRA0 0180  
               _samplesRA1 0100                    fputc@fp 0048              __Lmediumconst 0000  
        __end_of_vfpfcnvrt 05BE                  _RCSTAbits 0FAB                    postdec1 0FE5  
                  postdec2 0FDD                    postinc0 0FEE                    postinc1 0FE6  
                  postinc2 0FDE           vfpfcnvrt@convarg 0056                 ??_vfprintf 005E  
        _resetHasBeenTimer 09B2                  _TRISCbits 0F94         ?_resetHasBeenTimer 0046  
                _SIPutChar 09AA        ??_resetHasBeenTimer 0046                ?_initEUSART 0046  
                _TXSTAbits 0FAC             __end_of_SIPuts 07E6             _SIOAvailableRX 0996  
           _SIOAvailableTX 098A                vfpfcnvrt@ap 0052                vfpfcnvrt@cp 0055  
              vfpfcnvrt@fp 0050                _BAUDCONbits 0FB8  __end_of_resetHasBeenTimer 09B6  
           __end_of_tiStop 09AA               ?_TiInitTimer 0046        start_initialization 083A  
              __end_of_abs 0956                 ?_SIPutChar 0046                   ??_SIPuts 0049  
             ?__TiRSITimer 0046     __end_of_SIOAvailableRX 09A2     __end_of_SIOAvailableTX 0996  
              vfprintf@fmt 005C                   ??_tiStop 0046                __pbssCOMRAM 0002  
          ?_SIOAvailableRX 0046            ?_SIOAvailableTX 0046                  __pintcode 0008  
                 ?___awdiv 0046                   ?___awmod 0046                SIPuts@value 0047  
                 ?_initADC 0046                __smallconst 0200                   ?_tiStart 0046  
                 ?_sprintf 005F                ??_SIPutChar 0046                   _PIR1bits 0F9E  
                _vfpfcnvrt 046E                   _RSI_High 0008                 _ADCON0bits 0FC2  
               _ADCON1bits 0FC1                 _ADCON2bits 0FC0                  _trashwait 003E  
          _internalCounter 0032        __end_of_lookUpTable 021F           _oldConfiguration 0044  
               vfpfcnvrt@c 005A               ??_initEUSART 0046                   __Hrparam 0000  
                 _MotorADC 0258                 vfprintf@ap 005D                   __Lrparam 0000  
               vfprintf@fp 005B                 ?_vfpfcnvrt 0050                 sprintf@fmt 0060  
       __end_of_initEUSART 096C                   __ptext10 08D6                   __ptext11 046E  
                 __ptext20 0996                   __ptext12 05BE                   __ptext13 09B6  
                 __ptext22 072C                   __ptext14 092E                   __ptext15 06BE  
                 __ptext16 063E                   __ptext17 078A                   __ptext18 09AA  
                 __ptext19 098A                   _toPrint2 0080                   isa$xinst 0000  
                 int$flags 0001                   _vfprintf 08D6                _lookUpTable 0201  
              _OSCTUNEbits 0F9B                 _INTCONbits 0FF2           _newConfiguration 0045  
              _sampleIndex 0077                   intlevel2 0000                  sprintf@ap 0065  
         ??_SIOAvailableRX 0046           ??_SIOAvailableTX 0046                 _OSCCONbits 0FD3  
              ??_vfpfcnvrt 0053              _configuration 0042                   sprintf@f 0066  
                 sprintf@s 005F  
